(lp0
F-9.601638940166769
aF-9.601638940166769
aF-6.557116502443346
aF-9.601638940166769
aF-7.203743667368399
aF-6.557116502443346
aF-9.601638940166769
aF-9.601638940166769
aF-6.557116502443346
aF-7.203743667368399
aF-6.557116502443346
aF-9.601638940166769
aF-5.6698133074424435
aF-7.203743667368399
aF-9.601638940166769
aF-6.1676517356816225
aF-5.888066873462462
aF-5.2071897854943305
aF-9.601638940166769
aF-4.892108738854435
aF-7.203743667368399
aF-9.601638940166769
aF-4.037118532844076
aF-5.490765075993458
aF-5.888066873462462
aF-9.601638940166769
aF-6.1676517356816225
aF-6.557116502443346
aF-4.892108738854435
aF-6.1676517356816225
aF-6.1676517356816225
aF-5.888066873462462
aF-5.888066873462462
aF-7.203743667368399
aF-4.892108738854435
aF-9.601638940166769
aF-7.203743667368399
aF-5.888066873462462
aF-6.1676517356816225
aF-5.6698133074424435
aF-9.601638940166769
aF-9.601638940166769
aF-9.601638940166769
aF-9.601638940166769
aF-9.601638940166769
aF-4.726441616965618
aF-4.805848394570028
aF-5.888066873462462
aF-6.1676517356816225
aF-9.601638940166769
aF-4.726441616965618
aF-5.6698133074424435
aF-9.601638940166769
aF-7.203743667368399
aF-6.557116502443346
aF-9.601638940166769
aF-7.203743667368399
aF-6.557116502443346
aF-9.601638940166769
aF-9.601638940166769
aF-5.888066873462462
aF-9.601638940166769
aF-9.601638940166769
aF-9.601638940166769
aF-9.601638940166769
aF-9.601638940166769
aF-9.601638940166769
aF-4.98651842332551
aF-6.557116502443346
aF-9.601638940166769
aF-9.601638940166769
aF-9.601638940166769
aF-9.601638940166769
aF-9.601638940166769
aF-9.601638940166769
aF-9.601638940166769
aF-9.601638940166769
aF-9.601638940166769
aF-9.601638940166769
aF-7.203743667368399
aF-9.601638940166769
aF-9.601638940166769
aF-5.490765075993458
aF-5.090779433649919
aF-9.601638940166769
aF-9.601638940166769
aF-4.726441616965618
aF-9.601638940166769
aF-5.2071897854943305
aF-5.888066873462462
aF-5.490765075993458
aF-4.98651842332551
aF-9.601638940166769
aF-7.203743667368399
aF-9.601638940166769
aF-9.601638940166769
aF-9.601638940166769
aF-9.601638940166769
aF-9.601638940166769
aF-7.203743667368399
aF-5.2071897854943305
aF-6.1676517356816225
aF-7.203743667368399
aF-9.601638940166769
aF-9.601638940166769
aF-9.601638940166769
aF-7.203743667368399
aF-9.601638940166769
aF-9.601638940166769
aF-9.601638940166769
aF-9.601638940166769
aF-9.601638940166769
aF-9.601638940166769
aF-9.601638940166769
aF-9.601638940166769
aF-5.090779433649919
aF-4.726441616965618
aF-9.601638940166769
aF-9.601638940166769
aF-7.203743667368399
aF-9.601638940166769
aF-7.203743667368399
aF-9.601638940166769
aF-7.203743667368399
aF-9.601638940166769
aF-9.601638940166769
aF-5.338959063125454
aF-9.601638940166769
aF-9.601638940166769
aF-7.203743667368399
aF-6.557116502443346
aF-9.601638940166769
aF-9.601638940166769
aF-5.338959063125454
aF-6.557116502443346
aF-7.203743667368399
aF-9.601638940166769
aF-9.601638940166769
aF-9.601638940166769
aF-9.601638940166769
aF-9.601638940166769
aF-9.601638940166769
aF-9.601638940166769
aF-6.557116502443346
aF-7.203743667368399
aF-7.203743667368399
aF-9.601638940166769
aF-9.601638940166769
aF-9.601638940166769
aF-4.459975383664109
aF-9.601638940166769
aF-5.888066873462462
aF-9.601638940166769
aF-6.1676517356816225
aF-5.338959063125454
aF-9.601638940166769
aF-9.601638940166769
aF-9.601638940166769
aF-9.601638940166769
aF-9.601638940166769
aF-9.601638940166769
aF-6.557116502443346
aF-9.601638940166769
aF-5.888066873462462
aF-9.601638940166769
aF-9.601638940166769
aF-7.203743667368399
aF-6.557116502443346
aF-7.203743667368399
aF-6.557116502443346
aF-9.601638940166769
aF-9.601638940166769
aF-9.601638940166769
aF-9.601638940166769
aF-5.888066873462462
aF-9.601638940166769
aF-6.1676517356816225
aF-5.888066873462462
aF-6.557116502443346
aF-6.557116502443346
aF-9.601638940166769
aF-6.557116502443346
aF-7.203743667368399
aF-5.888066873462462
aF-7.203743667368399
aF-9.601638940166769
aF-9.601638940166769
aF-9.601638940166769
aF-7.203743667368399
aF-9.601638940166769
aF-7.203743667368399
aF-5.888066873462462
aF-9.601638940166769
aF-5.888066873462462
aF-9.601638940166769
aF-7.203743667368399
aF-9.601638940166769
aF-6.1676517356816225
aF-5.338959063125454
aF-7.203743667368399
aF-7.203743667368399
aF-3.4682408971701206
aF-5.2071897854943305
aF-6.557116502443346
aF-5.338959063125454
aF-5.490765075993458
aF-7.203743667368399
aF-9.601638940166769
aF-7.203743667368399
aF-6.1676517356816225
aF-9.601638940166769
aF-9.601638940166769
aF-9.601638940166769
aF-9.601638940166769
aF-9.601638940166769
aF-5.888066873462462
aF-9.601638940166769
aF-7.203743667368399
aF-9.601638940166769
aF-6.557116502443346
aF-9.601638940166769
aF-5.888066873462462
aF-7.203743667368399
aF-9.601638940166769
aF-6.557116502443346
aF-3.3268769189248304
aF-6.557116502443346
aF-9.601638940166769
aF-9.601638940166769
aF-9.601638940166769
aF-9.601638940166769
aF-6.1676517356816225
aF-4.652879049788601
aF-7.203743667368399
aF-5.6698133074424435
aF-7.203743667368399
aF-9.601638940166769
aF-4.1592212296449755
aF-6.1676517356816225
aF-7.203743667368399
aF-7.203743667368399
aF-6.1676517356816225
aF-6.1676517356816225
aF-6.1676517356816225
aF-7.203743667368399
aF-5.090779433649919
aF-2.9802332884026344
aF-5.2071897854943305
aF-6.557116502443346
aF-9.601638940166769
aF-7.203743667368399
aF-9.601638940166769
aF-5.888066873462462
aF-9.601638940166769
aF-9.601638940166769
aF-9.601638940166769
aF-9.601638940166769
aF-9.601638940166769
aF-9.601638940166769
aF-9.601638940166769
aF-9.601638940166769
aF-9.601638940166769
aF-9.601638940166769
aF-9.601638940166769
aF-9.601638940166769
aF-7.203743667368399
aF-9.601638940166769
aF-9.601638940166769
aF-6.557116502443346
aF-7.203743667368399
aF-9.601638940166769
aF-9.601638940166769
aF-9.601638940166769
aF-9.601638940166769
aF-9.601638940166769
aF-5.6698133074424435
aF-5.338959063125454
aF-9.601638940166769
aF-9.601638940166769
aF-9.601638940166769
aF-9.601638940166769
aF-9.601638940166769
aF-6.557116502443346
aF-5.090779433649919
aF-7.203743667368399
aF-3.7697564628832523
aF-4.076186001034985
aF-7.203743667368399
aF-9.601638940166769
aF-4.116842006676114
aF-5.338959063125454
aF-7.203743667368399
aF-9.601638940166769
aF-9.601638940166769
aF-9.601638940166769
aF-9.601638940166769
aF-9.601638940166769
aF-9.601638940166769
aF-3.6076775128602
aF-7.203743667368399
aF-7.203743667368399
aF-5.6698133074424435
aF-9.601638940166769
aF-9.601638940166769
aF-9.601638940166769
aF-9.601638940166769
aF-9.601638940166769
aF-6.557116502443346
aF-9.601638940166769
aF-9.601638940166769
aF-5.888066873462462
aF-4.98651842332551
aF-9.601638940166769
aF-5.490765075993458
aF-5.6698133074424435
aF-6.1676517356816225
aF-9.601638940166769
aF-9.601638940166769
aF-9.601638940166769
aF-9.601638940166769
aF-9.601638940166769
aF-9.601638940166769
aF-7.203743667368399
aF-5.6698133074424435
aF-5.888066873462462
aF-7.203743667368399
aF-5.490765075993458
aF-7.203743667368399
aF-5.090779433649919
aF-9.601638940166769
aF-7.203743667368399
aF-9.601638940166769
aF-6.557116502443346
aF-7.203743667368399
aF-7.203743667368399
aF-9.601638940166769
aF-6.1676517356816225
aF-5.490765075993458
aF-6.1676517356816225
aF-9.601638940166769
aF-7.203743667368399
aF-6.557116502443346
aF-7.203743667368399
aF-6.1676517356816225
aF-7.203743667368399
aF-9.601638940166769
aF-9.601638940166769
aF-4.459975383664109
aF-6.557116502443346
aF-5.888066873462462
aF-9.601638940166769
aF-3.685436877559334
aF-4.98651842332551
aF-9.601638940166769
aF-4.459975383664109
aF-4.076186001034985
aF-7.203743667368399
aF-9.601638940166769
aF-9.601638940166769
aF-9.601638940166769
aF-9.601638940166769
aF-7.203743667368399
aF-5.6698133074424435
aF-9.601638940166769
aF-9.601638940166769
aF-6.557116502443346
aF-9.601638940166769
aF-5.490765075993458
aF-9.601638940166769
aF-9.601638940166769
aF-9.601638940166769
aF-9.601638940166769
aF-9.601638940166769
aF-4.298334032107693
aF-9.601638940166769
aF-7.203743667368399
aF-7.203743667368399
aF-9.601638940166769
aF-6.1676517356816225
aF-9.601638940166769
aF-9.601638940166769
aF-6.557116502443346
aF-5.888066873462462
aF-9.601638940166769
aF-4.249780806690702
aF-6.1676517356816225
aF-4.98651842332551
aF-5.6698133074424435
aF-7.203743667368399
aF-9.601638940166769
aF-5.338959063125454
aF-6.557116502443346
aF-9.601638940166769
aF-9.601638940166769
aF-2.891115830714341
aF-4.652879049788601
aF-5.888066873462462
aF-4.349365512120139
aF-7.203743667368399
aF-7.203743667368399
aF-9.601638940166769
aF-6.1676517356816225
aF-9.601638940166769
aF-9.601638940166769
aF-9.601638940166769
aF-9.601638940166769
aF-9.601638940166769
aF-9.601638940166769
aF-9.601638940166769
aF-9.601638940166769
aF-7.203743667368399
aF-9.601638940166769
aF-9.601638940166769
aF-9.601638940166769
aF-7.203743667368399
aF-1.304843074396716
aF-3.5590061064843876
aF-7.203743667368399
aF-7.203743667368399
aF-9.601638940166769
aF-6.557116502443346
aF-5.6698133074424435
aF-7.203743667368399
aF-5.6698133074424435
aF-4.726441616965618
aF-9.601638940166769
aF-5.888066873462462
aF-7.203743667368399
aF-9.601638940166769
aF-5.888066873462462
aF-9.601638940166769
aF-9.601638940166769
aF-9.601638940166769
aF-7.203743667368399
aF-9.601638940166769
aF-9.601638940166769
aF-5.6698133074424435
aF-6.557116502443346
aF-6.1676517356816225
aF-5.490765075993458
aF-6.557116502443346
aF-9.601638940166769
aF-9.601638940166769
aF-5.6698133074424435
aF-7.203743667368399
aF-7.203743667368399
aF-9.601638940166769
aF-9.601638940166769
aF-9.601638940166769
aF-9.601638940166769
aF-7.203743667368399
aF-3.0634991163990994
aF-9.601638940166769
aF-5.888066873462462
aF-9.601638940166769
aF-4.037118532844076
aF-7.203743667368399
aF-7.203743667368399
aF-9.601638940166769
aF-7.203743667368399
aF-9.601638940166769
aF-9.601638940166769
aF-9.601638940166769
aF-5.888066873462462
aF-9.601638940166769
aF-9.601638940166769
aF-6.1676517356816225
aF-9.601638940166769
aF-9.601638940166769
aF-6.557116502443346
aF-9.601638940166769
aF-9.601638940166769
aF-3.685436877559334
aF-9.601638940166769
aF-9.601638940166769
aF-7.203743667368399
aF-7.203743667368399
aF-9.601638940166769
aF-9.601638940166769
aF-7.203743667368399
aF-9.601638940166769
aF-4.726441616965618
aF-9.601638940166769
aF-9.601638940166769
aF-7.203743667368399
aF-6.1676517356816225
aF-9.601638940166769
aF-9.601638940166769
aF-9.601638940166769
aF-9.601638940166769
aF-4.5843591033518445
aF-5.888066873462462
aF-9.601638940166769
aF-5.888066873462462
aF-9.601638940166769
aF-5.2071897854943305
aF-9.601638940166769
aF-9.601638940166769
aF-9.601638940166769
aF-6.1676517356816225
aF-6.1676517356816225
aF-9.601638940166769
aF-9.601638940166769
aF-9.601638940166769
aF-9.601638940166769
aF-1.6357462050822404
aF-9.601638940166769
aF-9.601638940166769
aF-6.557116502443346
aF-9.601638940166769
aF-7.203743667368399
aF-5.6698133074424435
aF-9.601638940166769
aF-9.601638940166769
aF-7.203743667368399
aF-6.1676517356816225
aF-1.6016248464886977
aF-9.601638940166769
aF-9.601638940166769
aF-9.601638940166769
aF-9.601638940166769
aF-5.338959063125454
aF-7.203743667368399
aF-6.557116502443346
aF-7.203743667368399
aF-7.203743667368399
aF-5.888066873462462
aF-9.601638940166769
aF-9.601638940166769
aF-9.601638940166769
aF-9.601638940166769
aF-5.888066873462462
aF-4.892108738854435
aF-9.601638940166769
aF-9.601638940166769
aF-9.601638940166769
aF-5.090779433649919
aF-5.6698133074424435
aF-6.1676517356816225
aF-9.601638940166769
aF-4.520234575182306
aF-7.203743667368399
aF-9.601638940166769
aF-3.6329313801814034
aF-9.601638940166769
aF-9.601638940166769
aF-6.1676517356816225
aF-5.888066873462462
aF-3.5355308500630214
aF-9.601638940166769
aF-9.601638940166769
aF-3.3082196613202877
aF-9.601638940166769
aF-9.601638940166769
aF-9.601638940166769
aF-6.557116502443346
aF-6.557116502443346
aF-4.652879049788601
aF-4.726441616965618
aF-6.1676517356816225
aF-4.652879049788601
aF-9.601638940166769
aF-9.601638940166769
aF-6.557116502443346
aF-6.557116502443346
aF-9.601638940166769
aF-9.601638940166769
aF-6.557116502443346
aF-6.557116502443346
aF-4.726441616965618
aF-7.203743667368399
aF-7.203743667368399
aF-9.601638940166769
aF-6.1676517356816225
aF-6.557116502443346
aF-5.6698133074424435
aF-9.601638940166769
aF-7.203743667368399
aF-9.601638940166769
aF-5.490765075993458
aF-9.601638940166769
aF-4.298334032107693
aF-9.601638940166769
aF-7.203743667368399
aF-6.557116502443346
aF-4.1592212296449755
aF-7.203743667368399
aF-6.1676517356816225
aF-9.601638940166769
aF-4.037118532844076
aF-7.203743667368399
aF-9.601638940166769
aF-6.557116502443346
aF-6.557116502443346
aF-7.203743667368399
aF-9.601638940166769
aF-6.557116502443346
aF-9.601638940166769
aF-7.203743667368399
aF-7.203743667368399
aF-7.203743667368399
aF-9.601638940166769
aF-9.601638940166769
aF-6.557116502443346
aF-7.203743667368399
aF-5.6698133074424435
aF-7.203743667368399
aF-9.601638940166769
aF-3.9632842708330234
aF-7.203743667368399
aF-9.601638940166769
aF-6.1676517356816225
aF-5.888066873462462
aF-7.203743667368399
aF-9.601638940166769
aF-6.557116502443346
aF-9.601638940166769
aF-5.6698133074424435
aF-6.557116502443346
aF-5.6698133074424435
aF-3.7995205647897063
aF-3.6076775128602
aF-5.090779433649919
aF-6.557116502443346
aF-2.3425228120696686
aF-5.888066873462462
aF-4.037118532844076
aF-4.805848394570028
aF-5.888066873462462
aF-6.557116502443346
aF-6.1676517356816225
aF-9.601638940166769
aF-7.203743667368399
aF-9.601638940166769
aF-9.601638940166769
aF-9.601638940166769
aF-9.601638940166769
aF-9.601638940166769
aF-5.2071897854943305
aF-9.601638940166769
aF-6.1676517356816225
aF-7.203743667368399
aF-5.888066873462462
aF-9.601638940166769
aF-6.557116502443346
aF-5.888066873462462
aF-6.557116502443346
aF-5.338959063125454
aF-6.557116502443346
aF-9.601638940166769
aF-6.1676517356816225
aF-6.1676517356816225
aF-9.601638940166769
aF-7.203743667368399
aF-3.3082196613202877
aF-7.203743667368399
aF-9.601638940166769
aF-5.090779433649919
aF-4.203476238649016
aF-4.203476238649016
aF-7.203743667368399
aF-9.601638940166769
aF-6.1676517356816225
aF-9.601638940166769
aF-9.601638940166769
aF-5.6698133074424435
aF-9.601638940166769
aF-9.601638940166769
aF-7.203743667368399
aF-3.7127609818338883
aF-6.557116502443346
aF-6.1676517356816225
aF-9.601638940166769
aF-5.888066873462462
aF-9.601638940166769
aF-3.8301978170367534
aF-4.98651842332551
aF-9.601638940166769
aF-9.601638940166769
aF-9.601638940166769
aF-9.601638940166769
aF-5.090779433649919
aF-3.8301978170367534
aF-9.601638940166769
aF-6.557116502443346
aF-9.601638940166769
aF-9.601638940166769
aF-7.203743667368399
aF-6.1676517356816225
aF-9.601638940166769
aF-9.601638940166769
aF-7.203743667368399
aF-4.520234575182306
aF-9.601638940166769
aF-9.601638940166769
aF-5.6698133074424435
aF-9.601638940166769
aF-9.601638940166769
aF-5.338959063125454
aF-7.203743667368399
aF-9.601638940166769
aF-7.203743667368399
aF-9.601638940166769
aF-4.459975383664109
aF-9.601638940166769
aF-9.601638940166769
aF-4.726441616965618
aF-9.601638940166769
aF-9.601638940166769
aF-9.601638940166769
aF-9.601638940166769
aF-9.601638940166769
aF-9.601638940166769
aF-6.1676517356816225
aF-9.601638940166769
aF-7.203743667368399
aF-9.601638940166769
aF-5.338959063125454
aF-5.888066873462462
aF-9.601638940166769
aF-6.557116502443346
aF-5.490765075993458
aF-6.1676517356816225
aF-6.557116502443346
aF-9.601638940166769
aF-5.888066873462462
aF-6.557116502443346
aF-9.601638940166769
aF-7.203743667368399
aF-7.203743667368399
aF-9.601638940166769
aF-7.203743667368399
aF-7.203743667368399
aF-7.203743667368399
aF-9.601638940166769
aF-5.338959063125454
aF-5.490765075993458
aF-5.090779433649919
aF-5.6698133074424435
aF-5.338959063125454
aF-7.203743667368399
aF-7.203743667368399
aF-6.1676517356816225
aF-7.203743667368399
aF-9.601638940166769
aF-9.601638940166769
aF-9.601638940166769
aF-9.601638940166769
aF-9.601638940166769
aF-9.601638940166769
aF-9.601638940166769
aF-9.601638940166769
aF-7.203743667368399
aF-5.490765075993458
aF-7.203743667368399
aF-9.601638940166769
aF-9.601638940166769
aF-9.601638940166769
aF-9.601638940166769
aF-9.601638940166769
aF-9.601638940166769
aF-9.601638940166769
aF-5.090779433649919
aF-9.601638940166769
aF-9.601638940166769
aF-7.203743667368399
aF-6.557116502443346
aF-4.203476238649016
aF-9.601638940166769
aF-9.601638940166769
aF-9.601638940166769
aF-7.203743667368399
aF-9.601638940166769
aF-9.601638940166769
aF-9.601638940166769
aF-5.2071897854943305
aF-7.203743667368399
aF-6.557116502443346
aF-9.601638940166769
aF-5.888066873462462
aF-5.090779433649919
aF-9.601638940166769
aF-5.2071897854943305
aF-7.203743667368399
aF-9.601638940166769
aF-9.601638940166769
aF-9.601638940166769
aF-9.601638940166769
aF-7.203743667368399
aF-9.601638940166769
aF-9.601638940166769
aF-9.601638940166769
aF-9.601638940166769
aF-5.490765075993458
aF-9.601638940166769
aF-9.601638940166769
aF-9.601638940166769
aF-9.601638940166769
aF-5.490765075993458
aF-7.203743667368399
aF-9.601638940166769
aF-7.203743667368399
aF-5.2071897854943305
aF-6.1676517356816225
aF-6.1676517356816225
aF-6.557116502443346
aF-9.601638940166769
aF-9.601638940166769
aF-9.601638940166769
aF-9.601638940166769
aF-7.203743667368399
aF-4.98651842332551
aF-6.557116502443346
aF-5.090779433649919
aF-4.892108738854435
aF-5.6698133074424435
aF-4.5843591033518445
aF-4.652879049788601
aF-6.557116502443346
aF-3.425771670061008
aF-3.7995205647897063
aF-7.203743667368399
aF-9.601638940166769
aF-9.601638940166769
aF-9.601638940166769
aF-9.601638940166769
aF-7.203743667368399
aF-9.601638940166769
aF-3.271918034644073
aF-9.601638940166769
aF-5.888066873462462
aF-6.557116502443346
aF-6.557116502443346
aF-7.203743667368399
aF-5.2071897854943305
aF-9.601638940166769
aF-4.892108738854435
aF-6.1676517356816225
aF-9.601638940166769
aF-4.805848394570028
aF-6.557116502443346
aF-9.601638940166769
aF-9.601638940166769
aF-3.8301978170367534
aF-6.557116502443346
aF-9.601638940166769
aF-9.601638940166769
aF-6.557116502443346
aF-9.601638940166769
aF-5.490765075993458
aF-5.490765075993458
aF-9.601638940166769
aF-7.203743667368399
aF-9.601638940166769
aF-9.601638940166769
aF-7.203743667368399
aF-9.601638940166769
aF-5.338959063125454
aF-5.2071897854943305
aF-5.888066873462462
aF-7.203743667368399
aF-9.601638940166769
aF-9.601638940166769
aF-9.601638940166769
aF-9.601638940166769
aF-6.557116502443346
aF-5.6698133074424435
aF-3.049131053132179
aF-6.557116502443346
aF-4.298334032107693
aF-6.557116502443346
aF-9.601638940166769
aF-9.601638940166769
aF-9.601638940166769
aF-3.2899041310138544
aF-9.601638940166769
aF-7.203743667368399
aF-7.203743667368399
aF-3.7995205647897063
aF-9.601638940166769
aF-3.385032839081904
aF-7.203743667368399
aF-3.9632842708330234
aF-4.116842006676114
aF-6.1676517356816225
aF-9.601638940166769
aF-9.601638940166769
aF-9.601638940166769
aF-5.490765075993458
aF-9.601638940166769
aF-7.203743667368399
aF-4.349365512120139
aF-4.5843591033518445
aF-5.490765075993458
aF-7.203743667368399
aF-5.888066873462462
aF-7.203743667368399
aF-9.601638940166769
aF-9.601638940166769
aF-9.601638940166769
aF-6.1676517356816225
aF-4.805848394570028
aF-6.1676517356816225
aF-3.5590061064843876
aF-9.601638940166769
aF-6.1676517356816225
aF-9.601638940166769
aF-9.601638940166769
aF-4.892108738854435
aF-6.557116502443346
aF-9.601638940166769
aF-7.203743667368399
aF-5.888066873462462
aF-4.805848394570028
aF-9.601638940166769
aF-7.203743667368399
aF-9.601638940166769
aF-5.338959063125454
aF-7.203743667368399
aF-5.888066873462462
aF-9.601638940166769
aF-9.601638940166769
aF-5.338959063125454
aF-9.601638940166769
aF-6.557116502443346
aF-9.601638940166769
aF-9.601638940166769
aF-6.557116502443346
aF-9.601638940166769
aF-5.888066873462462
aF-6.557116502443346
aF-7.203743667368399
aF-7.203743667368399
aF-9.601638940166769
aF-5.490765075993458
aF-6.557116502443346
aF-5.490765075993458
aF-5.338959063125454
aF-5.490765075993458
aF-6.557116502443346
aF-6.557116502443346
aF-9.601638940166769
aF-9.601638940166769
aF-7.203743667368399
aF-3.999520119287068
aF-9.601638940166769
aF-4.652879049788601
aF-6.1676517356816225
aF-9.601638940166769
aF-5.338959063125454
aF-9.601638940166769
aF-7.203743667368399
aF-6.1676517356816225
aF-6.557116502443346
aF-6.557116502443346
aF-9.601638940166769
aF-5.888066873462462
aF-6.557116502443346
aF-9.601638940166769
aF-9.601638940166769
aF-5.338959063125454
aF-4.520234575182306
aF-4.726441616965618
aF-9.601638940166769
aF-9.601638940166769
aF-9.601638940166769
aF-9.601638940166769
aF-9.601638940166769
aF-6.557116502443346
aF-9.601638940166769
aF-6.557116502443346
aF-9.601638940166769
aF-7.203743667368399
aF-9.601638940166769
aF-6.557116502443346
aF-9.601638940166769
aF-9.601638940166769
aF-6.557116502443346
aF-5.6698133074424435
aF-7.203743667368399
aF-5.090779433649919
aF-5.888066873462462
aF-6.1676517356816225
aF-3.9632842708330234
aF-6.557116502443346
aF-7.203743667368399
aF-5.6698133074424435
aF-7.203743667368399
aF-9.601638940166769
aF-6.1676517356816225
aF-5.490765075993458
aF-4.98651842332551
aF-7.203743667368399
aF-5.888066873462462
aF-3.8301978170367534
aF-7.203743667368399
aF-3.7697564628832523
aF-4.652879049788601
aF-7.203743667368399
aF-7.203743667368399
aF-9.601638940166769
aF-9.601638940166769
aF-7.203743667368399
aF-9.601638940166769
aF-6.1676517356816225
aF-9.601638940166769
aF-6.1676517356816225
aF-9.601638940166769
aF-9.601638940166769
aF-6.557116502443346
aF-9.601638940166769
aF-4.98651842332551
aF-4.652879049788601
aF-6.557116502443346
aF-6.557116502443346
aF-6.557116502443346
aF-4.459975383664109
aF-7.203743667368399
aF-9.601638940166769
aF-5.888066873462462
aF-9.601638940166769
aF-9.601638940166769
aF-9.601638940166769
aF-9.601638940166769
aF-9.601638940166769
aF-7.203743667368399
aF-9.601638940166769
aF-9.601638940166769
aF-9.601638940166769
aF-6.1676517356816225
aF-9.601638940166769
aF-6.557116502443346
aF-7.203743667368399
aF-6.557116502443346
aF-9.601638940166769
aF-9.601638940166769
aF-7.203743667368399
aF-5.6698133074424435
aF-6.557116502443346
aF-9.601638940166769
aF-9.601638940166769
aF-6.557116502443346
aF-5.888066873462462
aF-9.601638940166769
aF-9.601638940166769
aF-9.601638940166769
aF-6.557116502443346
aF-9.601638940166769
aF-3.6329313801814034
aF-5.6698133074424435
aF-6.557116502443346
aF-5.2071897854943305
aF-4.805848394570028
aF-5.490765075993458
aF-9.601638940166769
aF-9.601638940166769
aF-9.601638940166769
aF-3.5590061064843876
aF-4.892108738854435
aF-4.726441616965618
aF-3.0780766340172567
aF-6.1676517356816225
aF-6.557116502443346
aF-9.601638940166769
aF-9.601638940166769
aF-4.805848394570028
aF-5.338959063125454
aF-9.601638940166769
aF-9.601638940166769
aF-9.601638940166769
aF-9.601638940166769
aF-4.805848394570028
aF-9.601638940166769
aF-9.601638940166769
aF-5.490765075993458
aF-9.601638940166769
aF-9.601638940166769
aF-9.601638940166769
aF-9.601638940166769
aF-9.601638940166769
aF-9.601638940166769
aF-7.203743667368399
aF-9.601638940166769
aF-9.601638940166769
aF-9.601638940166769
aF-9.601638940166769
aF-6.1676517356816225
aF-6.557116502443346
aF-7.203743667368399
aF-9.601638940166769
aF-9.601638940166769
aF-9.601638940166769
aF-7.203743667368399
aF-7.203743667368399
aF-7.203743667368399
aF-7.203743667368399
aF-7.203743667368399
aF-7.203743667368399
aF-4.349365512120139
aF-5.888066873462462
aF-5.888066873462462
aF-9.601638940166769
aF-9.601638940166769
aF-6.557116502443346
aF-9.601638940166769
aF-9.601638940166769
aF-9.601638940166769
aF-6.557116502443346
aF-3.6329313801814034
aF-5.090779433649919
aF-7.203743667368399
aF-4.1592212296449755
aF-7.203743667368399
aF-5.090779433649919
aF-5.090779433649919
aF-6.557116502443346
aF-5.6698133074424435
aF-9.601638940166769
aF-5.6698133074424435
aF-9.601638940166769
aF-7.203743667368399
aF-3.9632842708330234
aF-9.601638940166769
aF-9.601638940166769
aF-7.203743667368399
aF-3.9283156729952764
aF-7.203743667368399
aF-4.726441616965618
aF-9.601638940166769
aF-6.1676517356816225
aF-9.601638940166769
aF-5.888066873462462
aF-3.8945286754178934
aF-9.601638940166769
aF-3.446780846150351
aF-4.249780806690702
aF-5.090779433649919
aF-7.203743667368399
aF-6.557116502443346
aF-7.203743667368399
aF-6.1676517356816225
aF-9.601638940166769
aF-9.601638940166769
aF-5.2071897854943305
aF-5.338959063125454
aF-9.601638940166769
aF-4.349365512120139
aF-4.298334032107693
aF-5.2071897854943305
aF-7.203743667368399
aF-6.557116502443346
aF-9.601638940166769
aF-7.203743667368399
aF-3.685436877559334
aF-9.601638940166769
aF-5.888066873462462
aF-5.888066873462462
aF-5.888066873462462
aF-7.203743667368399
aF-9.601638940166769
aF-5.090779433649919
aF-4.98651842332551
aF-9.601638940166769
aF-9.601638940166769
aF-9.601638940166769
aF-9.601638940166769
aF-9.601638940166769
aF-5.888066873462462
aF-6.1676517356816225
aF-6.1676517356816225
aF-6.1676517356816225
aF-9.601638940166769
aF-9.601638940166769
aF-9.601638940166769
aF-4.892108738854435
aF-5.888066873462462
aF-5.888066873462462
aF-4.5843591033518445
aF-9.601638940166769
aF-5.888066873462462
aF-9.601638940166769
aF-9.601638940166769
aF-9.601638940166769
aF-9.601638940166769
aF-5.490765075993458
aF-9.601638940166769
aF-5.6698133074424435
aF-7.203743667368399
aF-9.601638940166769
aF-9.601638940166769
aF-9.601638940166769
aF-9.601638940166769
aF-9.601638940166769
aF-3.658839565040068
aF-5.6698133074424435
aF-9.601638940166769
aF-4.726441616965618
aF-5.490765075993458
aF-9.601638940166769
aF-4.892108738854435
aF-5.888066873462462
aF-9.601638940166769
aF-6.557116502443346
aF-3.7697564628832523
aF-9.601638940166769
aF-9.601638940166769
aF-7.203743667368399
aF-4.892108738854435
aF-6.557116502443346
aF-9.601638940166769
aF-4.298334032107693
aF-4.116842006676114
aF-9.601638940166769
aF-9.601638940166769
aF-9.601638940166769
aF-5.490765075993458
aF-9.601638940166769
aF-3.092869803195087
aF-7.203743667368399
aF-6.557116502443346
aF-7.203743667368399
aF-4.5843591033518445
aF-9.601638940166769
aF-5.6698133074424435
aF-9.601638940166769
aF-6.557116502443346
aF-9.601638940166769
aF-7.203743667368399
aF-9.601638940166769
aF-9.601638940166769
aF-9.601638940166769
aF-5.2071897854943305
aF-9.601638940166769
aF-6.1676517356816225
aF-5.490765075993458
aF-7.203743667368399
aF-6.557116502443346
aF-2.5107291180867857
aF-9.601638940166769
aF-5.888066873462462
aF-7.203743667368399
aF-9.601638940166769
aF-4.203476238649016
aF-9.601638940166769
aF-5.888066873462462
aF-6.557116502443346
aF-2.6159971225275607
aF-6.1676517356816225
aF-9.601638940166769
aF-9.601638940166769
aF-9.601638940166769
aF-9.601638940166769
aF-9.601638940166769
aF-9.601638940166769
aF-7.203743667368399
aF-9.601638940166769
aF-7.203743667368399
aF-9.601638940166769
aF-5.6698133074424435
aF-6.557116502443346
aF-6.557116502443346
aF-6.557116502443346
aF-6.557116502443346
aF-9.601638940166769
aF-6.557116502443346
aF-7.203743667368399
aF-9.601638940166769
aF-9.601638940166769
aF-7.203743667368399
aF-7.203743667368399
aF-9.601638940166769
aF-9.601638940166769
aF-5.888066873462462
aF-3.0209998028818204
aF-5.6698133074424435
aF-7.203743667368399
aF-7.203743667368399
aF-9.601638940166769
aF-9.601638940166769
aF-9.601638940166769
aF-5.888066873462462
aF-9.601638940166769
aF-6.557116502443346
aF-9.601638940166769
aF-7.203743667368399
aF-9.601638940166769
aF-9.601638940166769
aF-4.892108738854435
aF-9.601638940166769
aF-9.601638940166769
aF-9.601638940166769
aF-9.601638940166769
aF-5.2071897854943305
aF-5.888066873462462
aF-7.203743667368399
aF-6.557116502443346
aF-7.203743667368399
aF-9.601638940166769
aF-7.203743667368399
aF-9.601638940166769
aF-7.203743667368399
aF-7.203743667368399
aF-9.601638940166769
aF-7.203743667368399
aF-9.601638940166769
aF-6.1676517356816225
aF-7.203743667368399
aF-6.557116502443346
aF-9.601638940166769
aF-9.601638940166769
aF-9.601638940166769
aF-7.203743667368399
aF-9.601638940166769
aF-7.203743667368399
aF-9.601638940166769
aF-7.203743667368399
aF-6.557116502443346
aF-9.601638940166769
aF-9.601638940166769
aF-9.601638940166769
aF-7.203743667368399
aF-9.601638940166769
aF-7.203743667368399
aF-9.601638940166769
aF-6.1676517356816225
aF-9.601638940166769
aF-9.601638940166769
aF-9.601638940166769
aF-9.601638940166769
aF-7.203743667368399
aF-7.203743667368399
aF-7.203743667368399
aF-6.557116502443346
aF-9.601638940166769
aF-9.601638940166769
aF-9.601638940166769
aF-6.557116502443346
aF-6.557116502443346
aF-5.888066873462462
aF-5.338959063125454
aF-7.203743667368399
aF-5.090779433649919
aF-5.490765075993458
aF-9.601638940166769
aF-9.601638940166769
aF-9.601638940166769
aF-9.601638940166769
aF-9.601638940166769
aF-9.601638940166769
aF-7.203743667368399
aF-6.1676517356816225
aF-9.601638940166769
aF-9.601638940166769
aF-7.203743667368399
aF-9.601638940166769
aF-5.888066873462462
aF-5.090779433649919
aF-9.601638940166769
aF-9.601638940166769
aF-5.6698133074424435
aF-5.888066873462462
aF-9.601638940166769
aF-9.601638940166769
aF-9.601638940166769
aF-9.601638940166769
aF-9.601638940166769
aF-9.601638940166769
aF-9.601638940166769
aF-7.203743667368399
aF-5.888066873462462
aF-7.203743667368399
aF-9.601638940166769
aF-9.601638940166769
aF-6.557116502443346
aF-9.601638940166769
aF-9.601638940166769
aF-9.601638940166769
aF-9.601638940166769
aF-9.601638940166769
aF-9.601638940166769
aF-5.888066873462462
aF-6.1676517356816225
aF-6.1676517356816225
aF-9.601638940166769
aF-9.601638940166769
aF-6.557116502443346
aF-9.601638940166769
aF-9.601638940166769
aF-9.601638940166769
aF-9.601638940166769
aF-9.601638940166769
aF-6.1676517356816225
aF-9.601638940166769
aF-9.601638940166769
aF-7.203743667368399
aF-4.98651842332551
aF-4.249780806690702
aF-6.557116502443346
aF-5.490765075993458
aF-9.601638940166769
aF-9.601638940166769
aF-7.203743667368399
aF-9.601638940166769
aF-9.601638940166769
aF-6.557116502443346
aF-9.601638940166769
aF-9.601638940166769
aF-6.557116502443346
aF-9.601638940166769
aF-4.403141908900944
aF-9.601638940166769
aF-6.557116502443346
aF-5.6698133074424435
aF-9.601638940166769
aF-9.601638940166769
aF-6.557116502443346
aF-9.601638940166769
aF-9.601638940166769
aF-9.601638940166769
aF-7.203743667368399
aF-9.601638940166769
aF-6.1676517356816225
aF-5.888066873462462
aF-9.601638940166769
aF-9.601638940166769
aF-3.6329313801814034
aF-4.076186001034985
aF-5.090779433649919
aF-5.090779433649919
aF-9.601638940166769
aF-6.1676517356816225
aF-6.557116502443346
aF-9.601638940166769
aF-9.601638940166769
aF-7.203743667368399
aF-9.601638940166769
aF-7.203743667368399
aF-9.601638940166769
aF-9.601638940166769
aF-9.601638940166769
aF-9.601638940166769
aF-9.601638940166769
aF-9.601638940166769
aF-5.888066873462462
aF-6.557116502443346
aF-9.601638940166769
aF-3.9283156729952764
aF-9.601638940166769
aF-4.520234575182306
aF-6.557116502443346
aF-9.601638940166769
aF-9.601638940166769
aF-9.601638940166769
aF-7.203743667368399
aF-6.557116502443346
aF-7.203743667368399
aF-9.601638940166769
aF-7.203743667368399
aF-5.888066873462462
aF-9.601638940166769
aF-9.601638940166769
aF-9.601638940166769
aF-9.601638940166769
aF-7.203743667368399
aF-7.203743667368399
aF-7.203743667368399
aF-7.203743667368399
aF-7.203743667368399
aF-5.888066873462462
aF-9.601638940166769
aF-9.601638940166769
aF-5.6698133074424435
aF-9.601638940166769
aF-6.1676517356816225
aF-9.601638940166769
aF-7.203743667368399
aF-6.557116502443346
aF-9.601638940166769
aF-4.349365512120139
aF-7.203743667368399
aF-9.601638940166769
aF-9.601638940166769
aF-9.601638940166769
aF-5.888066873462462
aF-7.203743667368399
aF-9.601638940166769
aF-5.090779433649919
aF-6.557116502443346
aF-9.601638940166769
aF-9.601638940166769
aF-9.601638940166769
aF-9.601638940166769
aF-5.338959063125454
aF-9.601638940166769
aF-9.601638940166769
aF-9.601638940166769
aF-9.601638940166769
aF-9.601638940166769
aF-4.892108738854435
aF-9.601638940166769
aF-9.601638940166769
aF-3.1231292979582
aF-5.6698133074424435
aF-3.9283156729952764
aF-3.658839565040068
aF-3.107885100315083
aF-6.557116502443346
aF-5.490765075993458
aF-9.601638940166769
aF-6.557116502443346
aF-9.601638940166769
aF-4.98651842332551
aF-7.203743667368399
aF-4.98651842332551
aF-9.601638940166769
aF-9.601638940166769
aF-9.601638940166769
aF-9.601638940166769
aF-5.6698133074424435
aF-9.601638940166769
aF-9.601638940166769
aF-7.203743667368399
aF-9.601638940166769
aF-6.557116502443346
aF-9.601638940166769
aF-6.557116502443346
aF-9.601638940166769
aF-9.601638940166769
aF-5.6698133074424435
aF-9.601638940166769
aF-9.601638940166769
aF-9.601638940166769
aF-9.601638940166769
aF-4.349365512120139
aF-7.203743667368399
aF-9.601638940166769
aF-9.601638940166769
aF-9.601638940166769
aF-9.601638940166769
aF-7.203743667368399
aF-9.601638940166769
aF-9.601638940166769
aF-6.1676517356816225
aF-9.601638940166769
aF-6.557116502443346
aF-7.203743667368399
aF-9.601638940166769
aF-7.203743667368399
aF-9.601638940166769
aF-9.601638940166769
aF-7.203743667368399
aF-9.601638940166769
aF-9.601638940166769
aF-9.601638940166769
aF-9.601638940166769
aF-6.557116502443346
aF-4.459975383664109
aF-3.5830457256705346
aF-5.6698133074424435
aF-3.8301978170367534
aF-5.6698133074424435
aF-6.557116502443346
aF-9.601638940166769
aF-7.203743667368399
aF-9.601638940166769
aF-9.601638940166769
aF-7.203743667368399
aF-9.601638940166769
aF-3.5830457256705346
aF-7.203743667368399
aF-5.490765075993458
aF-6.1676517356816225
aF-9.601638940166769
aF-9.601638940166769
aF-4.403141908900944
aF-9.601638940166769
aF-9.601638940166769
aF-9.601638940166769
aF-9.601638940166769
aF-9.601638940166769
aF-9.601638940166769
aF-7.203743667368399
aF-9.601638940166769
aF-9.601638940166769
aF-9.601638940166769
aF-6.1676517356816225
aF-7.203743667368399
aF-9.601638940166769
aF-9.601638940166769
aF-9.601638940166769
aF-9.601638940166769
aF-9.601638940166769
aF-9.601638940166769
aF-9.601638940166769
aF-9.601638940166769
aF-9.601638940166769
aF-7.203743667368399
aF-9.601638940166769
aF-7.203743667368399
aF-9.601638940166769
aF-7.203743667368399
aF-9.601638940166769
aF-6.557116502443346
aF-9.601638940166769
aF-9.601638940166769
aF-9.601638940166769
aF-9.601638940166769
aF-6.1676517356816225
aF-9.601638940166769
aF-9.601638940166769
aF-9.601638940166769
aF-9.601638940166769
aF-7.203743667368399
aF-9.601638940166769
aF-9.601638940166769
aF-9.601638940166769
aF-9.601638940166769
aF-9.601638940166769
aF-7.203743667368399
aF-7.203743667368399
aF-9.601638940166769
aF-9.601638940166769
aF-5.888066873462462
aF-5.888066873462462
aF-6.1676517356816225
aF-9.601638940166769
aF-9.601638940166769
aF-9.601638940166769
aF-4.98651842332551
aF-5.888066873462462
aF-9.601638940166769
aF-6.557116502443346
aF-9.601638940166769
aF-7.203743667368399
aF-9.601638940166769
aF-9.601638940166769
aF-7.203743667368399
aF-9.601638940166769
aF-9.601638940166769
aF-9.601638940166769
aF-5.888066873462462
aF-9.601638940166769
aF-9.601638940166769
aF-9.601638940166769
aF-9.601638940166769
aF-9.601638940166769
aF-9.601638940166769
aF-9.601638940166769
aF-9.601638940166769
aF-9.601638940166769
aF-9.601638940166769
aF-6.557116502443346
aF-6.557116502443346
aF-6.557116502443346
aF-5.6698133074424435
aF-6.1676517356816225
aF-6.1676517356816225
aF-9.601638940166769
aF-9.601638940166769
aF-9.601638940166769
aF-4.805848394570028
aF-7.203743667368399
aF-9.601638940166769
aF-6.1676517356816225
aF-9.601638940166769
aF-9.601638940166769
aF-9.601638940166769
aF-7.203743667368399
aF-9.601638940166769
aF-7.203743667368399
aF-9.601638940166769
aF-7.203743667368399
aF-9.601638940166769
aF-6.557116502443346
aF-9.601638940166769
aF-9.601638940166769
aF-9.601638940166769
aF-9.601638940166769
aF-7.203743667368399
aF-7.203743667368399
aF-9.601638940166769
aF-9.601638940166769
aF-9.601638940166769
aF-9.601638940166769
aF-9.601638940166769
aF-7.203743667368399
aF-9.601638940166769
aF-9.601638940166769
aF-9.601638940166769
aF-9.601638940166769
aF-9.601638940166769
aF-9.601638940166769
aF-9.601638940166769
aF-7.203743667368399
aF-9.601638940166769
aF-6.557116502443346
aF-9.601638940166769
aF-7.203743667368399
aF-9.601638940166769
aF-9.601638940166769
aF-9.601638940166769
aF-9.601638940166769
aF-9.601638940166769
aF-5.888066873462462
aF-9.601638940166769
aF-9.601638940166769
aF-9.601638940166769
aF-7.203743667368399
aF-9.601638940166769
aF-9.601638940166769
aF-9.601638940166769
aF-9.601638940166769
aF-9.601638940166769
aF-9.601638940166769
aF-9.601638940166769
aF-9.601638940166769
aF-9.601638940166769
aF-9.601638940166769
aF-9.601638940166769
aF-9.601638940166769
aF-9.601638940166769
aF-6.557116502443346
aF-9.601638940166769
aF-6.557116502443346
aF-9.601638940166769
aF-9.601638940166769
aF-6.557116502443346
aF-9.601638940166769
aF-9.601638940166769
aF-9.601638940166769
aF-9.601638940166769
aF-9.601638940166769
aF-9.601638940166769
aF-9.601638940166769
aF-7.203743667368399
aF-9.601638940166769
aF-9.601638940166769
aF-9.601638940166769
aF-9.601638940166769
aF-9.601638940166769
aF-9.601638940166769
aF-9.601638940166769
aF-9.601638940166769
aF-9.601638940166769
aF-9.601638940166769
aF-9.601638940166769
aF-7.203743667368399
aF-9.601638940166769
aF-9.601638940166769
aF-9.601638940166769
aF-6.557116502443346
aF-9.601638940166769
aF-5.6698133074424435
aF-5.338959063125454
aF-6.1676517356816225
aF-9.601638940166769
aF-5.888066873462462
aF-9.601638940166769
aF-9.601638940166769
aF-5.338959063125454
aF-4.652879049788601
aF-5.338959063125454
aF-6.1676517356816225
aF-9.601638940166769
aF-9.601638940166769
aF-5.090779433649919
aF-7.203743667368399
aF-7.203743667368399
aF-7.203743667368399
aF-7.203743667368399
aF-9.601638940166769
aF-9.601638940166769
aF-7.203743667368399
aF-9.601638940166769
aF-5.2071897854943305
aF-4.1592212296449755
aF-9.601638940166769
aF-9.601638940166769
aF-9.601638940166769
aF-9.601638940166769
aF-9.601638940166769
aF-9.601638940166769
aF-9.601638940166769
aF-7.203743667368399
aF-9.601638940166769
aF-9.601638940166769
aF-9.601638940166769
aF-9.601638940166769
aF-6.1676517356816225
aF-9.601638940166769
aF-9.601638940166769
aF-5.888066873462462
aF-9.601638940166769
aF-9.601638940166769
aF-9.601638940166769
aF-5.6698133074424435
aF-6.557116502443346
aF-6.557116502443346
aF-9.601638940166769
aF-7.203743667368399
aF-9.601638940166769
aF-4.98651842332551
aF-4.98651842332551
aF-7.203743667368399
aF-5.888066873462462
aF-9.601638940166769
aF-9.601638940166769
aF-3.365269349963065
aF-6.1676517356816225
aF-9.601638940166769
aF-9.601638940166769
aF-7.203743667368399
aF-9.601638940166769
aF-9.601638940166769
aF-9.601638940166769
aF-6.557116502443346
aF-7.203743667368399
aF-6.557116502443346
aF-7.203743667368399
aF-9.601638940166769
aF-9.601638940166769
aF-9.601638940166769
aF-9.601638940166769
aF-4.5843591033518445
aF-9.601638940166769
aF-9.601638940166769
aF-9.601638940166769
aF-9.601638940166769
aF-5.888066873462462
aF-7.203743667368399
aF-9.601638940166769
aF-4.5843591033518445
aF-5.2071897854943305
aF-5.888066873462462
aF-9.601638940166769
aF-4.349365512120139
aF-6.557116502443346
aF-5.888066873462462
aF-9.601638940166769
aF-7.203743667368399
aF-6.1676517356816225
aF-5.6698133074424435
aF-9.601638940166769
aF-9.601638940166769
aF-9.601638940166769
aF-4.403141908900944
aF-5.888066873462462
aF-9.601638940166769
aF-9.601638940166769
aF-4.520234575182306
aF-9.601638940166769
aF-5.6698133074424435
aF-7.203743667368399
aF-7.203743667368399
aF-6.557116502443346
aF-9.601638940166769
aF-9.601638940166769
aF-7.203743667368399
aF-9.601638940166769
aF-7.203743667368399
aF-7.203743667368399
aF-7.203743667368399
aF-5.090779433649919
aF-4.1592212296449755
aF-7.203743667368399
aF-4.892108738854435
aF-4.5843591033518445
aF-9.601638940166769
aF-9.601638940166769
aF-4.805848394570028
aF-2.993638314870682
aF-7.203743667368399
aF-3.0634991163990994
aF-9.601638940166769
aF-7.203743667368399
aF-9.601638940166769
aF-9.601638940166769
aF-5.490765075993458
aF-5.090779433649919
aF-5.6698133074424435
aF-6.557116502443346
aF-9.601638940166769
aF-7.203743667368399
aF-7.203743667368399
aF-7.203743667368399
aF-9.601638940166769
aF-5.338959063125454
aF-9.601638940166769
aF-7.203743667368399
aF-4.116842006676114
aF-5.090779433649919
aF-4.98651842332551
aF-5.490765075993458
aF-7.203743667368399
aF-4.892108738854435
aF-9.601638940166769
aF-6.1676517356816225
aF-9.601638940166769
aF-5.338959063125454
aF-9.601638940166769
aF-9.601638940166769
aF-4.652879049788601
aF-6.557116502443346
aF-9.601638940166769
aF-9.601638940166769
aF-3.1703078582332904
aF-9.601638940166769
aF-9.601638940166769
aF-9.601638940166769
aF-9.601638940166769
aF-9.601638940166769
aF-4.298334032107693
aF-9.601638940166769
aF-9.601638940166769
aF-9.601638940166769
aF-9.601638940166769
aF-7.203743667368399
aF-6.557116502443346
aF-9.601638940166769
aF-9.601638940166769
aF-6.1676517356816225
aF-3.6329313801814034
aF-4.249780806690702
aF-5.6698133074424435
aF-9.601638940166769
aF-9.601638940166769
aF-6.1676517356816225
aF-6.1676517356816225
aF-9.601638940166769
aF-6.557116502443346
aF-6.557116502443346
aF-9.601638940166769
aF-9.601638940166769
aF-9.601638940166769
aF-9.601638940166769
aF-9.601638940166769
aF-9.601638940166769
aF-7.203743667368399
aF-9.601638940166769
aF-6.557116502443346
aF-9.601638940166769
aF-9.601638940166769
aF-9.601638940166769
aF-9.601638940166769
aF-9.601638940166769
aF-7.203743667368399
aF-9.601638940166769
aF-9.601638940166769
aF-9.601638940166769
aF-9.601638940166769
aF-7.203743667368399
aF-5.888066873462462
aF-9.601638940166769
aF-5.888066873462462
aF-6.557116502443346
aF-6.1676517356816225
aF-9.601638940166769
aF-7.203743667368399
aF-7.203743667368399
aF-9.601638940166769
aF-9.601638940166769
aF-6.1676517356816225
aF-3.7408527167009034
aF-5.490765075993458
aF-4.892108738854435
aF-9.601638940166769
aF-9.601638940166769
aF-9.601638940166769
aF-7.203743667368399
aF-9.601638940166769
aF-5.490765075993458
aF-9.601638940166769
aF-7.203743667368399
aF-9.601638940166769
aF-5.2071897854943305
aF-9.601638940166769
aF-9.601638940166769
aF-9.601638940166769
aF-7.203743667368399
aF-6.1676517356816225
aF-9.601638940166769
aF-7.203743667368399
aF-6.557116502443346
aF-9.601638940166769
aF-5.6698133074424435
aF-7.203743667368399
aF-5.6698133074424435
aF-9.601638940166769
aF-9.601638940166769
aF-9.601638940166769
aF-6.557116502443346
aF-7.203743667368399
aF-5.090779433649919
aF-9.601638940166769
aF-9.601638940166769
aF-7.203743667368399
aF-9.601638940166769
aF-9.601638940166769
aF-4.805848394570028
aF-4.520234575182306
aF-4.726441616965618
aF-9.601638940166769
aF-9.601638940166769
aF-9.601638940166769
aF-9.601638940166769
aF-9.601638940166769
aF-9.601638940166769
aF-4.076186001034985
aF-5.490765075993458
aF-7.203743667368399
aF-6.557116502443346
aF-5.090779433649919
aF-9.601638940166769
aF-7.203743667368399
aF-9.601638940166769
aF-3.1231292979582
aF-3.4901716006640906
aF-6.1676517356816225
aF-4.037118532844076
aF-4.298334032107693
aF-4.98651842332551
aF-5.2071897854943305
aF-6.557116502443346
aF-7.203743667368399
aF-6.1676517356816225
aF-7.203743667368399
aF-9.601638940166769
aF-1.6819191792421946
aF-9.601638940166769
aF-9.601638940166769
aF-7.203743667368399
aF-9.601638940166769
aF-9.601638940166769
aF-9.601638940166769
aF-7.203743667368399
aF-9.601638940166769
aF-7.203743667368399
aF-9.601638940166769
aF-9.601638940166769
aF-9.601638940166769
aF-4.403141908900944
aF-2.867047280193821
aF-7.203743667368399
aF-9.601638940166769
aF-9.601638940166769
aF-9.601638940166769
aF-9.601638940166769
aF-5.490765075993458
aF-9.601638940166769
aF-5.490765075993458
aF-6.1676517356816225
aF-9.601638940166769
aF-9.601638940166769
aF-5.6698133074424435
aF-7.203743667368399
aF-7.203743667368399
aF-9.601638940166769
aF-9.601638940166769
aF-6.1676517356816225
aF-9.601638940166769
aF-7.203743667368399
aF-9.601638940166769
aF-9.601638940166769
aF-9.601638940166769
aF-9.601638940166769
aF-9.601638940166769
aF-9.601638940166769
aF-9.601638940166769
aF-9.601638940166769
aF-9.601638940166769
aF-9.601638940166769
aF-9.601638940166769
aF-6.557116502443346
aF-9.601638940166769
aF-9.601638940166769
aF-9.601638940166769
aF-9.601638940166769
aF-9.601638940166769
aF-9.601638940166769
aF-9.601638940166769
aF-5.888066873462462
aF-7.203743667368399
aF-9.601638940166769
aF-9.601638940166769
aF-5.338959063125454
aF-5.888066873462462
aF-9.601638940166769
aF-9.601638940166769
aF-9.601638940166769
aF-9.601638940166769
aF-5.888066873462462
aF-6.557116502443346
aF-9.601638940166769
aF-9.601638940166769
aF-7.203743667368399
aF-9.601638940166769
aF-7.203743667368399
aF-9.601638940166769
aF-7.203743667368399
aF-9.601638940166769
aF-7.203743667368399
aF-7.203743667368399
aF-9.601638940166769
aF-2.7029244058367814
aF-9.601638940166769
aF-6.557116502443346
aF-9.601638940166769
aF-7.203743667368399
aF-9.601638940166769
aF-9.601638940166769
aF-9.601638940166769
aF-9.601638940166769
aF-9.601638940166769
aF-5.490765075993458
aF-9.601638940166769
aF-9.601638940166769
aF-9.601638940166769
aF-9.601638940166769
aF-9.601638940166769
aF-9.601638940166769
aF-9.601638940166769
aF-9.601638940166769
aF-9.601638940166769
aF-9.601638940166769
aF-6.557116502443346
aF-9.601638940166769
aF-6.557116502443346
aF-9.601638940166769
aF-7.203743667368399
aF-7.203743667368399
aF-9.601638940166769
aF-6.557116502443346
aF-6.557116502443346
aF-7.203743667368399
aF-9.601638940166769
aF-9.601638940166769
aF-9.601638940166769
aF-9.601638940166769
aF-7.203743667368399
aF-9.601638940166769
aF-3.9632842708330234
aF-6.557116502443346
aF-6.557116502443346
aF-5.888066873462462
aF-5.490765075993458
aF-4.652879049788601
aF-5.888066873462462
aF-6.557116502443346
aF-5.2071897854943305
aF-9.601638940166769
aF-9.601638940166769
aF-4.249780806690702
aF-6.557116502443346
aF-3.658839565040068
aF-9.601638940166769
aF-9.601638940166769
aF-9.601638940166769
aF-5.490765075993458
aF-4.892108738854435
aF-3.6329313801814034
aF-9.601638940166769
aF-9.601638940166769
aF-9.601638940166769
aF-9.601638940166769
aF-9.601638940166769
aF-9.601638940166769
aF-5.888066873462462
aF-9.601638940166769
aF-9.601638940166769
aF-9.601638940166769
aF-9.601638940166769
aF-9.601638940166769
aF-9.601638940166769
aF-9.601638940166769
aF-9.601638940166769
aF-9.601638940166769
aF-9.601638940166769
aF-9.601638940166769
aF-9.601638940166769
aF-7.203743667368399
aF-7.203743667368399
aF-9.601638940166769
aF-6.557116502443346
aF-4.298334032107693
aF-7.203743667368399
aF-7.203743667368399
aF-7.203743667368399
aF-5.338959063125454
aF-5.090779433649919
aF-4.98651842332551
aF-5.888066873462462
aF-9.601638940166769
aF-9.601638940166769
aF-9.601638940166769
aF-9.601638940166769
aF-6.557116502443346
aF-7.203743667368399
aF-9.601638940166769
aF-9.601638940166769
aF-9.601638940166769
aF-9.601638940166769
aF-9.601638940166769
aF-7.203743667368399
aF-7.203743667368399
aF-5.490765075993458
aF-5.338959063125454
aF-5.090779433649919
aF-9.601638940166769
aF-5.490765075993458
aF-9.601638940166769
aF-7.203743667368399
aF-7.203743667368399
aF-9.601638940166769
aF-7.203743667368399
aF-6.557116502443346
aF-7.203743667368399
aF-9.601638940166769
aF-9.601638940166769
aF-9.601638940166769
aF-9.601638940166769
aF-9.601638940166769
aF-5.888066873462462
aF-9.601638940166769
aF-9.601638940166769
aF-9.601638940166769
aF-9.601638940166769
aF-5.888066873462462
aF-9.601638940166769
aF-5.6698133074424435
aF-7.203743667368399
aF-6.1676517356816225
aF-9.601638940166769
aF-7.203743667368399
aF-3.9283156729952764
aF-3.512594064719923
aF-4.5843591033518445
aF-2.993638314870682
aF-3.6076775128602
aF-5.6698133074424435
aF-5.888066873462462
aF-9.601638940166769
aF-3.5355308500630214
aF-3.6076775128602
aF-4.805848394570028
aF-4.726441616965618
aF-5.2071897854943305
aF-9.601638940166769
aF-9.601638940166769
aF-7.203743667368399
aF-3.512594064719923
aF-2.91577799309841
aF-9.601638940166769
aF-9.601638940166769
aF-9.601638940166769
aF-9.601638940166769
aF-7.203743667368399
aF-4.403141908900944
aF-3.8945286754178934
aF-9.601638940166769
aF-2.787096042906811
aF-4.805848394570028
aF-9.601638940166769
aF-6.557116502443346
aF-9.601638940166769
aF-9.601638940166769
aF-7.203743667368399
aF-4.349365512120139
aF-5.090779433649919
aF-9.601638940166769
aF-9.601638940166769
aF-3.9283156729952764
aF-7.203743667368399
aF-7.203743667368399
aF-6.557116502443346
aF-7.203743667368399
aF-9.601638940166769
aF-6.1676517356816225
aF-9.601638940166769
aF-6.1676517356816225
aF-9.601638940166769
aF-4.520234575182306
aF-6.557116502443346
aF-3.154333077625556
aF-4.98651842332551
aF-6.1676517356816225
aF-5.490765075993458
aF-5.338959063125454
aF-6.1676517356816225
aF-9.601638940166769
aF-9.601638940166769
aF-9.601638940166769
aF-9.601638940166769
aF-4.249780806690702
aF-9.601638940166769
aF-7.203743667368399
aF-6.1676517356816225
aF-6.557116502443346
aF-9.601638940166769
aF-9.601638940166769
aF-3.385032839081904
aF-9.601638940166769
aF-5.090779433649919
aF-4.805848394570028
aF-9.601638940166769
aF-9.601638940166769
aF-9.601638940166769
aF-9.601638940166769
aF-9.601638940166769
aF-4.1592212296449755
aF-9.601638940166769
aF-9.601638940166769
aF-4.520234575182306
aF-9.601638940166769
aF-9.601638940166769
aF-6.557116502443346
aF-9.601638940166769
aF-9.601638940166769
aF-6.1676517356816225
aF-9.601638940166769
aF-9.601638940166769
aF-9.601638940166769
aF-7.203743667368399
aF-9.601638940166769
aF-7.203743667368399
aF-9.601638940166769
aF-6.557116502443346
aF-9.601638940166769
aF-4.076186001034985
aF-7.203743667368399
aF-5.338959063125454
aF-7.203743667368399
aF-9.601638940166769
aF-7.203743667368399
aF-4.249780806690702
aF-7.203743667368399
aF-7.203743667368399
aF-3.3082196613202877
aF-9.601638940166769
aF-6.557116502443346
aF-9.601638940166769
aF-7.203743667368399
aF-3.7127609818338883
aF-7.203743667368399
aF-9.601638940166769
aF-7.203743667368399
aF-9.601638940166769
aF-4.805848394570028
aF-9.601638940166769
aF-9.601638940166769
aF-9.601638940166769
aF-5.490765075993458
aF-9.601638940166769
aF-9.601638940166769
aF-9.601638940166769
aF-5.2071897854943305
aF-9.601638940166769
aF-9.601638940166769
aF-9.601638940166769
aF-9.601638940166769
aF-5.888066873462462
aF-9.601638940166769
aF-9.601638940166769
aF-7.203743667368399
aF-4.459975383664109
aF-7.203743667368399
aF-9.601638940166769
aF-7.203743667368399
aF-6.557116502443346
aF-9.601638940166769
aF-9.601638940166769
aF-9.601638940166769
aF-9.601638940166769
aF-9.601638940166769
aF-6.1676517356816225
aF-9.601638940166769
aF-9.601638940166769
aF-5.490765075993458
aF-6.557116502443346
aF-9.601638940166769
aF-6.557116502443346
aF-9.601638940166769
aF-9.601638940166769
aF-9.601638940166769
aF-3.7127609818338883
aF-5.888066873462462
aF-6.557116502443346
aF-7.203743667368399
aF-7.203743667368399
aF-9.601638940166769
aF-6.557116502443346
aF-6.1676517356816225
aF-6.1676517356816225
aF-5.6698133074424435
aF-9.601638940166769
aF-6.1676517356816225
aF-7.203743667368399
aF-9.601638940166769
aF-2.9033708860513565
aF-7.203743667368399
aF-7.203743667368399
aF-6.557116502443346
aF-5.888066873462462
aF-9.601638940166769
aF-9.601638940166769
aF-9.601638940166769
aF-9.601638940166769
aF-5.888066873462462
aF-9.601638940166769
aF-5.490765075993458
aF-9.601638940166769
aF-6.557116502443346
aF-9.601638940166769
aF-9.601638940166769
aF-9.601638940166769
aF-4.805848394570028
aF-9.601638940166769
aF-9.601638940166769
aF-7.203743667368399
aF-9.601638940166769
aF-9.601638940166769
aF-9.601638940166769
aF-7.203743667368399
aF-6.557116502443346
aF-7.203743667368399
aF-9.601638940166769
aF-9.601638940166769
aF-4.459975383664109
aF-6.1676517356816225
aF-6.557116502443346
aF-7.203743667368399
aF-9.601638940166769
aF-6.557116502443346
aF-4.349365512120139
aF-4.892108738854435
aF-6.1676517356816225
aF-7.203743667368399
aF-4.1592212296449755
aF-5.6698133074424435
aF-9.601638940166769
aF-5.888066873462462
aF-9.601638940166769
aF-5.888066873462462
aF-5.888066873462462
aF-6.557116502443346
aF-6.557116502443346
aF-9.601638940166769
aF-9.601638940166769
aF-6.557116502443346
aF-9.601638940166769
aF-7.203743667368399
aF-9.601638940166769
aF-5.338959063125454
aF-6.1676517356816225
aF-9.601638940166769
aF-9.601638940166769
aF-7.203743667368399
aF-7.203743667368399
aF-6.1676517356816225
aF-9.601638940166769
aF-9.601638940166769
aF-6.557116502443346
aF-9.601638940166769
aF-9.601638940166769
aF-6.1676517356816225
aF-5.490765075993458
aF-6.557116502443346
aF-7.203743667368399
aF-5.2071897854943305
aF-5.2071897854943305
aF-9.601638940166769
aF-5.2071897854943305
aF-9.601638940166769
aF-6.557116502443346
aF-9.601638940166769
aF-5.6698133074424435
aF-5.6698133074424435
aF-9.601638940166769
aF-9.601638940166769
aF-7.203743667368399
aF-9.601638940166769
aF-5.888066873462462
aF-7.203743667368399
aF-9.601638940166769
aF-6.1676517356816225
aF-6.557116502443346
aF-9.601638940166769
aF-9.601638940166769
aF-9.601638940166769
aF-9.601638940166769
aF-6.557116502443346
aF-9.601638940166769
aF-9.601638940166769
aF-9.601638940166769
aF-7.203743667368399
aF-9.601638940166769
aF-9.601638940166769
aF-6.557116502443346
aF-4.98651842332551
aF-4.726441616965618
aF-4.98651842332551
aF-9.601638940166769
aF-9.601638940166769
aF-9.601638940166769
aF-9.601638940166769
aF-9.601638940166769
aF-5.888066873462462
aF-6.557116502443346
aF-9.601638940166769
aF-7.203743667368399
aF-5.6698133074424435
aF-5.490765075993458
aF-9.601638940166769
aF-7.203743667368399
aF-9.601638940166769
aF-6.557116502443346
aF-9.601638940166769
aF-7.203743667368399
aF-4.892108738854435
aF-6.557116502443346
aF-9.601638940166769
aF-9.601638940166769
aF-5.888066873462462
aF-3.5355308500630214
aF-9.601638940166769
aF-5.2071897854943305
aF-9.601638940166769
aF-4.98651842332551
aF-6.557116502443346
aF-6.557116502443346
aF-5.6698133074424435
aF-9.601638940166769
aF-5.888066873462462
aF-5.490765075993458
aF-3.8301978170367534
aF-9.601638940166769
aF-7.203743667368399
aF-7.203743667368399
aF-7.203743667368399
aF-9.601638940166769
aF-6.1676517356816225
aF-9.601638940166769
aF-5.888066873462462
aF-9.601638940166769
aF-4.5843591033518445
aF-9.601638940166769
aF-9.601638940166769
aF-5.090779433649919
aF-6.1676517356816225
aF-4.298334032107693
aF-6.1676517356816225
aF-6.557116502443346
aF-6.557116502443346
aF-9.601638940166769
aF-9.601638940166769
aF-6.1676517356816225
aF-6.1676517356816225
aF-9.601638940166769
aF-5.338959063125454
aF-9.601638940166769
aF-9.601638940166769
aF-7.203743667368399
aF-9.601638940166769
aF-6.557116502443346
aF-4.98651842332551
aF-9.601638940166769
aF-4.726441616965618
aF-9.601638940166769
aF-5.6698133074424435
aF-9.601638940166769
aF-9.601638940166769
aF-5.6698133074424435
aF-5.6698133074424435
aF-9.601638940166769
aF-4.805848394570028
aF-7.203743667368399
aF-6.557116502443346
aF-9.601638940166769
aF-6.557116502443346
aF-9.601638940166769
aF-7.203743667368399
aF-2.242171301911148
aF-9.601638940166769
aF-5.888066873462462
aF-9.601638940166769
aF-2.0102818934682185
aF-5.6698133074424435
aF-5.888066873462462
aF-9.601638940166769
aF-5.338959063125454
aF-6.1676517356816225
aF-9.601638940166769
aF-9.601638940166769
aF-9.601638940166769
aF-5.6698133074424435
aF-9.601638940166769
aF-6.557116502443346
aF-9.601638940166769
aF-5.6698133074424435
aF-6.1676517356816225
aF-9.601638940166769
aF-9.601638940166769
aF-7.203743667368399
aF-9.601638940166769
aF-9.601638940166769
aF-4.652879049788601
aF-5.338959063125454
aF-9.601638940166769
aF-7.203743667368399
aF-7.203743667368399
aF-6.1676517356816225
aF-9.601638940166769
aF-9.601638940166769
aF-9.601638940166769
aF-7.203743667368399
aF-7.203743667368399
aF-9.601638940166769
aF-9.601638940166769
aF-9.601638940166769
aF-6.1676517356816225
aF-4.652879049788601
aF-9.601638940166769
aF-4.076186001034985
aF-5.490765075993458
aF-6.557116502443346
aF-9.601638940166769
aF-7.203743667368399
aF-7.203743667368399
aF-9.601638940166769
aF-9.601638940166769
aF-5.490765075993458
aF-7.203743667368399
aF-5.490765075993458
aF-6.557116502443346
aF-9.601638940166769
aF-5.490765075993458
aF-7.203743667368399
aF-9.601638940166769
aF-4.116842006676114
aF-7.203743667368399
aF-4.726441616965618
aF-9.601638940166769
aF-3.7697564628832523
aF-9.601638940166769
aF-6.557116502443346
aF-5.6698133074424435
aF-9.601638940166769
aF-9.601638940166769
aF-9.601638940166769
aF-9.601638940166769
aF-6.1676517356816225
aF-5.2071897854943305
aF-5.090779433649919
aF-9.601638940166769
aF-9.601638940166769
aF-5.888066873462462
aF-7.203743667368399
aF-4.726441616965618
aF-9.601638940166769
aF-6.557116502443346
aF-9.601638940166769
aF-5.2071897854943305
aF-9.601638940166769
aF-6.557116502443346
aF-6.1676517356816225
aF-7.203743667368399
aF-6.557116502443346
aF-6.1676517356816225
aF-9.601638940166769
aF-6.1676517356816225
aF-9.601638940166769
aF-9.601638940166769
aF-9.601638940166769
aF-9.601638940166769
aF-9.601638940166769
aF-6.557116502443346
aF-6.1676517356816225
aF-9.601638940166769
aF-5.888066873462462
aF-5.6698133074424435
aF-9.601638940166769
aF-5.888066873462462
aF-6.557116502443346
aF-4.98651842332551
aF-7.203743667368399
aF-9.601638940166769
aF-5.888066873462462
aF-9.601638940166769
aF-9.601638940166769
aF-9.601638940166769
aF-9.601638940166769
aF-9.601638940166769
aF-9.601638940166769
aF-9.601638940166769
aF-9.601638940166769
aF-9.601638940166769
aF-9.601638940166769
aF-9.601638940166769
aF-4.203476238649016
aF-4.726441616965618
aF-1.1589538009255933
aF-9.601638940166769
aF-6.1676517356816225
aF-9.601638940166769
aF-6.557116502443346
aF-4.037118532844076
aF-6.557116502443346
aF-9.601638940166769
aF-9.601638940166769
aF-4.805848394570028
aF-9.601638940166769
aF-7.203743667368399
aF-3.7408527167009034
aF-5.888066873462462
aF-6.557116502443346
aF-9.601638940166769
aF-9.601638940166769
aF-9.601638940166769
aF-9.601638940166769
aF-9.601638940166769
aF-6.557116502443346
aF-4.98651842332551
aF-4.1592212296449755
aF-7.203743667368399
aF-7.203743667368399
aF-5.888066873462462
aF-6.1676517356816225
aF-9.601638940166769
aF-9.601638940166769
aF-9.601638940166769
aF-9.601638940166769
aF-9.601638940166769
aF-7.203743667368399
aF-9.601638940166769
aF-5.338959063125454
aF-9.601638940166769
aF-9.601638940166769
aF-7.203743667368399
aF-1.9049718586403075
aF-3.8945286754178934
aF-5.338959063125454
aF-5.490765075993458
aF-5.338959063125454
aF-5.490765075993458
aF-9.601638940166769
aF-9.601638940166769
aF-7.203743667368399
aF-6.1676517356816225
aF-6.1676517356816225
aF-7.203743667368399
aF-5.338959063125454
aF-6.557116502443346
aF-6.557116502443346
aF-9.601638940166769
aF-7.203743667368399
aF-7.203743667368399
aF-6.557116502443346
aF-5.2071897854943305
aF-4.459975383664109
aF-7.203743667368399
aF-5.090779433649919
aF-7.203743667368399
aF-7.203743667368399
aF-6.1676517356816225
aF-9.601638940166769
aF-6.557116502443346
aF-6.557116502443346
aF-6.557116502443346
aF-9.601638940166769
aF-9.601638940166769
aF-9.601638940166769
aF-5.090779433649919
aF-6.1676517356816225
aF-5.888066873462462
aF-9.601638940166769
aF-6.1676517356816225
aF-7.203743667368399
aF-9.601638940166769
aF-9.601638940166769
aF-5.6698133074424435
aF-4.98651842332551
aF-5.338959063125454
aF-7.203743667368399
aF-5.6698133074424435
aF-9.601638940166769
aF-9.601638940166769
aF-3.7995205647897063
aF-6.557116502443346
aF-6.557116502443346
aF-7.203743667368399
aF-5.338959063125454
aF-9.601638940166769
aF-7.203743667368399
aF-9.601638940166769
aF-4.726441616965618
aF-5.888066873462462
aF-9.601638940166769
aF-9.601638940166769
aF-6.557116502443346
aF-9.601638940166769
aF-9.601638940166769
aF-9.601638940166769
aF-9.601638940166769
aF-9.601638940166769
aF-5.490765075993458
aF-7.203743667368399
aF-9.601638940166769
aF-9.601638940166769
aF-6.557116502443346
aF-6.557116502443346
aF-5.490765075993458
aF-6.557116502443346
aF-9.601638940166769
aF-7.203743667368399
aF-6.557116502443346
aF-4.726441616965618
aF-7.203743667368399
aF-6.1676517356816225
aF-4.5843591033518445
aF-5.6698133074424435
aF-6.1676517356816225
aF-4.520234575182306
aF-6.557116502443346
aF-4.459975383664109
aF-5.490765075993458
aF-3.271918034644073
aF-9.601638940166769
aF-9.601638940166769
aF-9.601638940166769
aF-9.601638940166769
aF-7.203743667368399
aF-7.203743667368399
aF-6.557116502443346
aF-2.3147625284160696
aF-9.601638940166769
aF-9.601638940166769
aF-9.601638940166769
aF-7.203743667368399
aF-9.601638940166769
aF-5.888066873462462
aF-7.203743667368399
aF-9.601638940166769
aF-9.601638940166769
aF-9.601638940166769
aF-9.601638940166769
aF-9.601638940166769
aF-9.601638940166769
aF-7.203743667368399
aF-6.1676517356816225
aF-5.490765075993458
aF-7.203743667368399
aF-7.203743667368399
aF-5.2071897854943305
aF-9.601638940166769
aF-9.601638940166769
aF-9.601638940166769
aF-7.203743667368399
aF-9.601638940166769
aF-9.601638940166769
aF-9.601638940166769
aF-7.203743667368399
aF-9.601638940166769
aF-4.892108738854435
aF-9.601638940166769
aF-9.601638940166769
aF-7.203743667368399
aF-9.601638940166769
aF-9.601638940166769
aF-7.203743667368399
aF-6.1676517356816225
aF-9.601638940166769
aF-3.6076775128602
aF-4.459975383664109
aF-5.2071897854943305
aF-9.601638940166769
aF-9.601638940166769
aF-9.601638940166769
aF-9.601638940166769
aF-4.5843591033518445
aF-5.6698133074424435
aF-7.203743667368399
aF-9.601638940166769
aF-6.557116502443346
aF-5.090779433649919
aF-4.459975383664109
aF-4.805848394570028
aF-9.601638940166769
aF-9.601638940166769
aF-6.557116502443346
aF-7.203743667368399
aF-5.888066873462462
aF-6.557116502443346
aF-9.601638940166769
aF-5.090779433649919
aF-7.203743667368399
aF-9.601638940166769
aF-7.203743667368399
aF-9.601638940166769
aF-4.892108738854435
aF-9.601638940166769
aF-6.557116502443346
aF-9.601638940166769
aF-9.601638940166769
aF-7.203743667368399
aF-5.888066873462462
aF-6.1676517356816225
aF-5.338959063125454
aF-6.1676517356816225
aF-9.601638940166769
aF-4.892108738854435
aF-6.1676517356816225
aF-5.2071897854943305
aF-9.601638940166769
aF-4.403141908900944
aF-9.601638940166769
aF-9.601638940166769
aF-9.601638940166769
aF-7.203743667368399
aF-9.601638940166769
aF-7.203743667368399
aF-9.601638940166769
aF-6.1676517356816225
aF-9.601638940166769
aF-9.601638940166769
aF-9.601638940166769
aF-7.203743667368399
aF-3.0072254804169907
aF-6.1676517356816225
aF-9.601638940166769
aF-9.601638940166769
aF-4.298334032107693
aF-5.888066873462462
aF-4.459975383664109
aF-5.490765075993458
aF-7.203743667368399
aF-9.601638940166769
aF-6.557116502443346
aF-9.601638940166769
aF-9.601638940166769
aF-2.9539505666034396
aF-5.490765075993458
aF-7.203743667368399
aF-4.459975383664109
aF-7.203743667368399
aF-7.203743667368399
aF-6.557116502443346
aF-9.601638940166769
aF-4.98651842332551
aF-5.888066873462462
aF-7.203743667368399
aF-7.203743667368399
aF-6.557116502443346
aF-9.601638940166769
aF-3.685436877559334
aF-9.601638940166769
aF-9.601638940166769
aF-9.601638940166769
aF-6.1676517356816225
aF-9.601638940166769
aF-7.203743667368399
aF-5.2071897854943305
aF-9.601638940166769
aF-9.601638940166769
aF-9.601638940166769
aF-7.203743667368399
aF-4.349365512120139
aF-5.490765075993458
aF-4.726441616965618
aF-4.403141908900944
aF-5.490765075993458
aF-4.652879049788601
aF-6.1676517356816225
aF-9.601638940166769
aF-7.203743667368399
aF-9.601638940166769
aF-9.601638940166769
aF-9.601638940166769
aF-9.601638940166769
aF-5.2071897854943305
aF-5.338959063125454
aF-4.726441616965618
aF-9.601638940166769
aF-7.203743667368399
aF-5.490765075993458
aF-6.557116502443346
aF-3.6329313801814034
aF-5.090779433649919
aF-5.2071897854943305
aF-5.338959063125454
aF-9.601638940166769
aF-9.601638940166769
aF-5.338959063125454
aF-9.601638940166769
aF-6.557116502443346
aF-4.5843591033518445
aF-5.888066873462462
aF-9.601638940166769
aF-7.203743667368399
aF-3.4901716006640906
aF-9.601638940166769
aF-9.601638940166769
aF-7.203743667368399
aF-9.601638940166769
aF-9.601638940166769
aF-9.601638940166769
aF-5.888066873462462
aF-7.203743667368399
aF-7.203743667368399
aF-6.1676517356816225
aF-9.601638940166769
aF-7.203743667368399
aF-7.203743667368399
aF-7.203743667368399
aF-6.557116502443346
aF-6.557116502443346
aF-6.557116502443346
aF-9.601638940166769
aF-6.557116502443346
aF-2.519090370811469
aF-3.9632842708330234
aF-6.557116502443346
aF-4.298334032107693
aF-6.557116502443346
aF-6.1676517356816225
aF-4.249780806690702
aF-9.601638940166769
aF-7.203743667368399
aF-7.203743667368399
aF-5.888066873462462
aF-7.203743667368399
aF-4.520234575182306
aF-9.601638940166769
aF-9.601638940166769
aF-7.203743667368399
aF-9.601638940166769
aF-7.203743667368399
aF-9.601638940166769
aF-7.203743667368399
aF-9.601638940166769
aF-6.1676517356816225
aF-6.1676517356816225
aF-7.203743667368399
aF-5.2071897854943305
aF-9.601638940166769
aF-7.203743667368399
aF-9.601638940166769
aF-5.490765075993458
aF-4.520234575182306
aF-4.116842006676114
aF-9.601638940166769
aF-4.805848394570028
aF-5.6698133074424435
aF-6.1676517356816225
aF-9.601638940166769
aF-9.601638940166769
aF-5.6698133074424435
aF-9.601638940166769
aF-9.601638940166769
aF-9.601638940166769
aF-9.601638940166769
aF-5.888066873462462
aF-5.6698133074424435
aF-4.98651842332551
aF-5.888066873462462
aF-5.2071897854943305
aF-7.203743667368399
aF-9.601638940166769
aF-5.490765075993458
aF-9.601638940166769
aF-9.601638940166769
aF-9.601638940166769
aF-9.601638940166769
aF-9.601638940166769
aF-7.203743667368399
aF-9.601638940166769
aF-9.601638940166769
aF-9.601638940166769
aF-9.601638940166769
aF-5.090779433649919
aF-7.203743667368399
aF-6.1676517356816225
aF-7.203743667368399
aF-6.557116502443346
aF-5.2071897854943305
aF-6.557116502443346
aF-4.726441616965618
aF-7.203743667368399
aF-6.557116502443346
aF-7.203743667368399
aF-9.601638940166769
aF-9.601638940166769
aF-4.805848394570028
aF-9.601638940166769
aF-9.601638940166769
aF-7.203743667368399
aF-9.601638940166769
aF-9.601638940166769
aF-6.1676517356816225
aF-6.1676517356816225
aF-9.601638940166769
aF-7.203743667368399
aF-9.601638940166769
aF-7.203743667368399
aF-9.601638940166769
aF-9.601638940166769
aF-6.557116502443346
aF-5.888066873462462
aF-9.601638940166769
aF-9.601638940166769
aF-9.601638940166769
aF-9.601638940166769
aF-9.601638940166769
aF-9.601638940166769
aF-9.601638940166769
aF-9.601638940166769
aF-9.601638940166769
aF-9.601638940166769
aF-9.601638940166769
aF-7.203743667368399
aF-7.203743667368399
aF-9.601638940166769
aF-9.601638940166769
aF-9.601638940166769
aF-6.1676517356816225
aF-9.601638940166769
aF-9.601638940166769
aF-7.203743667368399
aF-9.601638940166769
aF-5.888066873462462
aF-7.203743667368399
aF-9.601638940166769
aF-9.601638940166769
aF-7.203743667368399
aF-5.090779433649919
aF-9.601638940166769
aF-7.203743667368399
aF-7.203743667368399
aF-7.203743667368399
aF-9.601638940166769
aF-9.601638940166769
aF-9.601638940166769
aF-9.601638940166769
aF-9.601638940166769
aF-9.601638940166769
aF-9.601638940166769
aF-9.601638940166769
aF-9.601638940166769
aF-9.601638940166769
aF-9.601638940166769
aF-9.601638940166769
aF-9.601638940166769
aF-9.601638940166769
aF-5.2071897854943305
aF-9.601638940166769
aF-9.601638940166769
aF-9.601638940166769
aF-7.203743667368399
aF-9.601638940166769
aF-9.601638940166769
aF-9.601638940166769
aF-3.3268769189248304
aF-9.601638940166769
aF-9.601638940166769
aF-7.203743667368399
aF-9.601638940166769
aF-5.490765075993458
aF-9.601638940166769
aF-3.1865419809951736
aF-9.601638940166769
aF-6.1676517356816225
aF-6.557116502443346
aF-9.601638940166769
aF-9.601638940166769
aF-9.601638940166769
aF-9.601638940166769
aF-9.601638940166769
aF-9.601638940166769
aF-9.601638940166769
aF-4.805848394570028
aF-4.403141908900944
aF-7.203743667368399
aF-3.2899041310138544
aF-6.557116502443346
aF-9.601638940166769
aF-9.601638940166769
aF-7.203743667368399
aF-9.601638940166769
aF-6.1676517356816225
aF-7.203743667368399
aF-9.601638940166769
aF-7.203743667368399
aF-9.601638940166769
aF-5.090779433649919
aF-4.892108738854435
aF-4.892108738854435
aF-7.203743667368399
aF-6.557116502443346
aF-6.557116502443346
aF-9.601638940166769
aF-9.601638940166769
aF-9.601638940166769
aF-9.601638940166769
aF-9.601638940166769
aF-9.601638940166769
aF-9.601638940166769
aF-7.203743667368399
aF-7.203743667368399
aF-9.601638940166769
aF-9.601638940166769
aF-4.805848394570028
aF-9.601638940166769
aF-9.601638940166769
aF-6.557116502443346
aF-7.203743667368399
aF-9.601638940166769
aF-9.601638940166769
aF-9.601638940166769
aF-5.888066873462462
aF-9.601638940166769
aF-9.601638940166769
aF-9.601638940166769
aF-9.601638940166769
aF-9.601638940166769
aF-4.037118532844076
aF-6.557116502443346
aF-5.338959063125454
aF-7.203743667368399
aF-9.601638940166769
aF-9.601638940166769
aF-9.601638940166769
aF-9.601638940166769
aF-9.601638940166769
aF-5.338959063125454
aF-9.601638940166769
aF-9.601638940166769
aF-9.601638940166769
aF-7.203743667368399
aF-5.6698133074424435
aF-5.6698133074424435
aF-6.1676517356816225
aF-9.601638940166769
aF-9.601638940166769
aF-9.601638940166769
aF-9.601638940166769
aF-7.203743667368399
aF-4.805848394570028
aF-9.601638940166769
aF-9.601638940166769
aF-9.601638940166769
aF-9.601638940166769
aF-9.601638940166769
aF-9.601638940166769
aF-9.601638940166769
aF-5.490765075993458
aF-4.98651842332551
aF-6.557116502443346
aF-9.601638940166769
aF-9.601638940166769
aF-4.805848394570028
aF-9.601638940166769
aF-9.601638940166769
aF-9.601638940166769
aF-9.601638940166769
aF-7.203743667368399
aF-9.601638940166769
aF-6.557116502443346
aF-9.601638940166769
aF-9.601638940166769
aF-9.601638940166769
aF-9.601638940166769
aF-9.601638940166769
aF-5.490765075993458
aF-6.1676517356816225
aF-5.2071897854943305
aF-9.601638940166769
aF-9.601638940166769
aF-9.601638940166769
aF-9.601638940166769
aF-9.601638940166769
aF-5.888066873462462
aF-6.1676517356816225
aF-9.601638940166769
aF-9.601638940166769
aF-4.076186001034985
aF-3.385032839081904
aF-5.888066873462462
aF-7.203743667368399
aF-9.601638940166769
aF-9.601638940166769
aF-7.203743667368399
aF-9.601638940166769
aF-9.601638940166769
aF-9.601638940166769
aF-9.601638940166769
aF-9.601638940166769
aF-9.601638940166769
aF-9.601638940166769
aF-9.601638940166769
aF-9.601638940166769
aF-9.601638940166769
aF-9.601638940166769
aF-6.557116502443346
aF-5.888066873462462
aF-9.601638940166769
aF-9.601638940166769
aF-9.601638940166769
aF-9.601638940166769
aF-6.557116502443346
aF-9.601638940166769
aF-9.601638940166769
aF-9.601638940166769
aF-9.601638940166769
aF-9.601638940166769
aF-9.601638940166769
aF-9.601638940166769
aF-9.601638940166769
aF-9.601638940166769
aF-9.601638940166769
aF-9.601638940166769
aF-7.203743667368399
aF-5.490765075993458
aF-7.203743667368399
aF-6.557116502443346
aF-9.601638940166769
aF-4.98651842332551
aF-9.601638940166769
aF-9.601638940166769
aF-5.338959063125454
aF-9.601638940166769
aF-9.601638940166769
aF-9.601638940166769
aF-9.601638940166769
aF-9.601638940166769
aF-9.601638940166769
aF-9.601638940166769
aF-9.601638940166769
aF-9.601638940166769
aF-9.601638940166769
aF-9.601638940166769
aF-9.601638940166769
aF-3.8301978170367534
aF-5.490765075993458
aF-6.557116502443346
aF-9.601638940166769
aF-9.601638940166769
aF-9.601638940166769
aF-9.601638940166769
aF-9.601638940166769
aF-9.601638940166769
aF-9.601638940166769
aF-9.601638940166769
aF-9.601638940166769
aF-9.601638940166769
aF-4.403141908900944
aF-4.459975383664109
aF-5.888066873462462
aF-7.203743667368399
aF-6.557116502443346
aF-7.203743667368399
aF-7.203743667368399
aF-6.557116502443346
aF-5.888066873462462
aF-9.601638940166769
aF-9.601638940166769
aF-9.601638940166769
aF-9.601638940166769
aF-9.601638940166769
aF-9.601638940166769
aF-9.601638940166769
aF-9.601638940166769
aF-9.601638940166769
aF-4.203476238649016
aF-7.203743667368399
aF-7.203743667368399
aF-5.888066873462462
aF-9.601638940166769
aF-9.601638940166769
aF-5.338959063125454
aF-7.203743667368399
aF-9.601638940166769
aF-9.601638940166769
aF-6.1676517356816225
aF-9.601638940166769
aF-9.601638940166769
aF-9.601638940166769
aF-9.601638940166769
aF-9.601638940166769
aF-9.601638940166769
aF-9.601638940166769
aF-9.601638940166769
aF-9.601638940166769
aF-7.203743667368399
aF-9.601638940166769
aF-9.601638940166769
aF-9.601638940166769
aF-6.557116502443346
aF-9.601638940166769
aF-9.601638940166769
aF-9.601638940166769
aF-9.601638940166769
aF-9.601638940166769
aF-6.557116502443346
aF-5.888066873462462
aF-9.601638940166769
aF-6.1676517356816225
aF-9.601638940166769
aF-5.888066873462462
aF-7.203743667368399
aF-9.601638940166769
aF-9.601638940166769
aF-9.601638940166769
aF-9.601638940166769
aF-7.203743667368399
aF-9.601638940166769
aF-7.203743667368399
aF-9.601638940166769
aF-6.557116502443346
aF-9.601638940166769
aF-9.601638940166769
aF-9.601638940166769
aF-9.601638940166769
aF-9.601638940166769
aF-9.601638940166769
aF-9.601638940166769
aF-9.601638940166769
aF-7.203743667368399
aF-4.892108738854435
aF-7.203743667368399
aF-9.601638940166769
aF-5.490765075993458
aF-6.1676517356816225
aF-5.6698133074424435
aF-6.1676517356816225
aF-9.601638940166769
aF-9.601638940166769
aF-7.203743667368399
aF-9.601638940166769
aF-9.601638940166769
aF-4.98651842332551
aF-5.888066873462462
aF-5.888066873462462
aF-6.557116502443346
aF-5.888066873462462
aF-6.557116502443346
aF-9.601638940166769
aF-7.203743667368399
aF-9.601638940166769
aF-9.601638940166769
aF-6.557116502443346
aF-9.601638940166769
aF-5.6698133074424435
aF-9.601638940166769
aF-9.601638940166769
aF-6.1676517356816225
aF-9.601638940166769
aF-6.557116502443346
aF-9.601638940166769
aF-6.557116502443346
aF-6.557116502443346
aF-7.203743667368399
aF-9.601638940166769
aF-9.601638940166769
aF-9.601638940166769
aF-7.203743667368399
aF-9.601638940166769
aF-9.601638940166769
aF-6.557116502443346
aF-5.090779433649919
aF-6.1676517356816225
aF-5.338959063125454
aF-5.6698133074424435
aF-7.203743667368399
aF-9.601638940166769
aF-4.892108738854435
aF-6.557116502443346
aF-9.601638940166769
aF-9.601638940166769
aF-9.601638940166769
aF-5.6698133074424435
aF-9.601638940166769
aF-9.601638940166769
aF-9.601638940166769
aF-6.1676517356816225
aF-9.601638940166769
aF-9.601638940166769
aF-9.601638940166769
aF-9.601638940166769
aF-9.601638940166769
aF-4.037118532844076
aF-5.338959063125454
aF-4.298334032107693
aF-6.1676517356816225
aF-5.888066873462462
aF-9.601638940166769
aF-9.601638940166769
aF-7.203743667368399
aF-9.601638940166769
aF-6.557116502443346
aF-9.601638940166769
aF-9.601638940166769
aF-5.888066873462462
aF-6.557116502443346
aF-3.5355308500630214
aF-3.4901716006640906
aF-7.203743667368399
aF-4.298334032107693
aF-2.015342633014049
aF-5.6698133074424435
aF-6.557116502443346
aF-6.1676517356816225
aF-7.203743667368399
aF-6.557116502443346
aF-6.557116502443346
aF-9.601638940166769
aF-9.601638940166769
aF-7.203743667368399
aF-6.1676517356816225
aF-9.601638940166769
aF-7.203743667368399
aF-9.601638940166769
aF-7.203743667368399
aF-6.1676517356816225
aF-9.601638940166769
aF-9.601638940166769
aF-9.601638940166769
aF-9.601638940166769
aF-9.601638940166769
aF-9.601638940166769
aF-5.338959063125454
aF-5.6698133074424435
aF-3.7408527167009034
aF-7.203743667368399
aF-6.557116502443346
aF-6.557116502443346
aF-5.6698133074424435
aF-9.601638940166769
aF-7.203743667368399
aF-7.203743667368399
aF-9.601638940166769
aF-9.601638940166769
aF-9.601638940166769
aF-9.601638940166769
aF-7.203743667368399
aF-9.601638940166769
aF-9.601638940166769
aF-7.203743667368399
aF-9.601638940166769
aF-4.5843591033518445
aF-9.601638940166769
aF-9.601638940166769
aF-9.601638940166769
aF-7.203743667368399
aF-5.888066873462462
aF-9.601638940166769
aF-6.557116502443346
aF-9.601638940166769
aF-9.601638940166769
aF-4.892108738854435
aF-7.203743667368399
aF-6.557116502443346
aF-7.203743667368399
aF-9.601638940166769
aF-7.203743667368399
aF-9.601638940166769
aF-9.601638940166769
aF-9.601638940166769
aF-7.203743667368399
aF-9.601638940166769
aF-7.203743667368399
aF-9.601638940166769
aF-9.601638940166769
aF-9.601638940166769
aF-9.601638940166769
aF-4.5843591033518445
aF-9.601638940166769
aF-4.349365512120139
aF-9.601638940166769
aF-4.5843591033518445
aF-9.601638940166769
aF-6.557116502443346
aF-7.203743667368399
aF-9.601638940166769
aF-9.601638940166769
aF-9.601638940166769
aF-9.601638940166769
aF-9.601638940166769
aF-9.601638940166769
aF-9.601638940166769
aF-9.601638940166769
aF-9.601638940166769
aF-9.601638940166769
aF-9.601638940166769
aF-9.601638940166769
aF-9.601638940166769
aF-9.601638940166769
aF-4.726441616965618
aF-9.601638940166769
aF-9.601638940166769
aF-9.601638940166769
aF-6.557116502443346
aF-9.601638940166769
aF-5.888066873462462
aF-9.601638940166769
aF-9.601638940166769
aF-9.601638940166769
aF-6.557116502443346
aF-9.601638940166769
aF-9.601638940166769
aF-9.601638940166769
aF-6.557116502443346
aF-7.203743667368399
aF-9.601638940166769
aF-9.601638940166769
aF-6.557116502443346
aF-6.557116502443346
aF-3.8945286754178934
aF-7.203743667368399
aF-9.601638940166769
aF-6.557116502443346
aF-4.98651842332551
aF-5.6698133074424435
aF-4.249780806690702
aF-9.601638940166769
aF-4.298334032107693
aF-9.601638940166769
aF-9.601638940166769
aF-6.557116502443346
aF-9.601638940166769
aF-5.6698133074424435
aF-6.1676517356816225
aF-7.203743667368399
aF-5.6698133074424435
aF-9.601638940166769
aF-9.601638940166769
aF-7.203743667368399
aF-4.726441616965618
aF-9.601638940166769
aF-9.601638940166769
aF-5.888066873462462
aF-9.601638940166769
aF-9.601638940166769
aF-9.601638940166769
aF-9.601638940166769
aF-7.203743667368399
aF-5.338959063125454
aF-5.2071897854943305
aF-5.490765075993458
aF-9.601638940166769
aF-9.601638940166769
aF-6.557116502443346
aF-9.601638940166769
aF-9.601638940166769
aF-3.236888183314858
aF-5.2071897854943305
aF-9.601638940166769
aF-5.888066873462462
aF-6.557116502443346
aF-7.203743667368399
aF-4.805848394570028
aF-9.601638940166769
aF-9.601638940166769
aF-7.203743667368399
aF-9.601638940166769
aF-9.601638940166769
aF-7.203743667368399
aF-9.601638940166769
aF-7.203743667368399
aF-9.601638940166769
aF-9.601638940166769
aF-9.601638940166769
aF-9.601638940166769
aF-9.601638940166769
aF-6.557116502443346
aF-4.652879049788601
aF-7.203743667368399
aF-7.203743667368399
aF-9.601638940166769
aF-9.601638940166769
aF-9.601638940166769
aF-9.601638940166769
aF-6.557116502443346
aF-9.601638940166769
aF-9.601638940166769
aF-7.203743667368399
aF-2.6537018715518004
aF-2.9033708860513565
aF-3.1231292979582
aF-3.4901716006640906
aF-9.601638940166769
aF-3.7697564628832523
aF-9.601638940166769
aF-5.888066873462462
aF-9.601638940166769
aF-9.601638940166769
aF-4.98651842332551
aF-4.805848394570028
aF-9.601638940166769
aF-7.203743667368399
aF-9.601638940166769
aF-6.557116502443346
aF-6.1676517356816225
aF-2.8435444357390383
aF-7.203743667368399
aF-5.6698133074424435
aF-6.557116502443346
aF-9.601638940166769
aF-4.037118532844076
aF-4.403141908900944
aF-3.5830457256705346
aF-9.601638940166769
aF-9.601638940166769
aF-9.601638940166769
aF-9.601638940166769
aF-9.601638940166769
aF-7.203743667368399
aF-9.601638940166769
aF-9.601638940166769
aF-9.601638940166769
aF-3.2542497305107587
aF-9.601638940166769
aF-7.203743667368399
aF-9.601638940166769
aF-9.601638940166769
aF-6.557116502443346
aF-9.601638940166769
aF-9.601638940166769
aF-9.601638940166769
aF-9.601638940166769
aF-6.557116502443346
aF-6.1676517356816225
aF-6.557116502443346
aF-6.557116502443346
aF-9.601638940166769
aF-9.601638940166769
aF-7.203743667368399
aF-9.601638940166769
aF-9.601638940166769
aF-7.203743667368399
aF-9.601638940166769
aF-3.4901716006640906
aF-4.726441616965618
aF-9.601638940166769
aF-5.888066873462462
aF-9.601638940166769
aF-9.601638940166769
aF-9.601638940166769
aF-9.601638940166769
aF-9.601638940166769
aF-9.601638940166769
aF-9.601638940166769
aF-9.601638940166769
aF-9.601638940166769
aF-9.601638940166769
aF-4.459975383664109
aF-2.8435444357390383
aF-3.6329313801814034
aF-3.0780766340172567
aF-6.1676517356816225
aF-9.601638940166769
aF-9.601638940166769
aF-6.1676517356816225
aF-7.203743667368399
aF-9.601638940166769
aF-5.888066873462462
aF-9.601638940166769
aF-9.601638940166769
aF-9.601638940166769
aF-9.601638940166769
aF-3.8945286754178934
aF-9.601638940166769
aF-9.601638940166769
aF-7.203743667368399
aF-9.601638940166769
aF-4.892108738854435
aF-9.601638940166769
aF-4.805848394570028
aF-9.601638940166769
aF-9.601638940166769
aF-7.203743667368399
aF-4.203476238649016
aF-6.557116502443346
aF-9.601638940166769
aF-5.888066873462462
aF-6.557116502443346
aF-7.203743667368399
aF-9.601638940166769
aF-9.601638940166769
aF-9.601638940166769
aF-6.1676517356816225
aF-6.1676517356816225
aF-9.601638940166769
aF-7.203743667368399
aF-7.203743667368399
aF-6.1676517356816225
aF-9.601638940166769
aF-9.601638940166769
aF-9.601638940166769
aF-4.652879049788601
aF-6.557116502443346
aF-9.601638940166769
aF-3.8945286754178934
aF-6.557116502443346
aF-4.037118532844076
aF-9.601638940166769
aF-5.338959063125454
aF-6.1676517356816225
aF-4.203476238649016
aF-0.890360325036335
aF-3.385032839081904
aF-3.5830457256705346
aF-5.2071897854943305
aF-5.888066873462462
aF-9.601638940166769
aF-6.1676517356816225
aF-4.076186001034985
aF-5.338959063125454
aF-5.090779433649919
aF-9.601638940166769
aF-5.888066873462462
aF-9.601638940166769
aF-7.203743667368399
aF-4.98651842332551
aF-9.601638940166769
aF-9.601638940166769
aF-9.601638940166769
aF-6.557116502443346
aF-5.888066873462462
aF-9.601638940166769
aF-7.203743667368399
aF-9.601638940166769
aF-4.98651842332551
aF-4.98651842332551
aF-6.557116502443346
aF-4.98651842332551
aF-6.557116502443346
aF-7.203743667368399
aF-9.601638940166769
aF-6.1676517356816225
aF-6.557116502443346
aF-5.888066873462462
aF-7.203743667368399
aF-9.601638940166769
aF-9.601638940166769
aF-4.520234575182306
aF-6.557116502443346
aF-9.601638940166769
aF-3.6076775128602
aF-4.403141908900944
aF-5.090779433649919
aF-3.8945286754178934
aF-4.5843591033518445
aF-4.652879049788601
aF-5.888066873462462
aF-2.4942134660560646
aF-3.446780846150351
aF-6.557116502443346
aF-4.349365512120139
aF-5.2071897854943305
aF-9.601638940166769
aF-1.8605398501314034
aF-3.9283156729952764
aF-6.1676517356816225
aF-9.601638940166769
aF-9.601638940166769
aF-4.203476238649016
aF-4.037118532844076
aF-4.298334032107693
aF-4.459975383664109
aF-9.601638940166769
aF-9.601638940166769
aF-9.601638940166769
aF-9.601638940166769
aF-9.601638940166769
aF-9.601638940166769
aF-6.1676517356816225
aF-4.98651842332551
aF-5.888066873462462
aF-9.601638940166769
aF-9.601638940166769
aF-3.9632842708330234
aF-9.601638940166769
aF-9.601638940166769
aF-9.601638940166769
aF-4.203476238649016
aF-5.6698133074424435
aF-3.861846027987535
aF-6.557116502443346
aF-6.557116502443346
aF-5.6698133074424435
aF-7.203743667368399
aF-7.203743667368399
aF-9.601638940166769
aF-5.490765075993458
aF-9.601638940166769
aF-9.601638940166769
aF-5.338959063125454
aF-5.6698133074424435
aF-6.557116502443346
aF-6.1676517356816225
aF-5.888066873462462
aF-7.203743667368399
aF-9.601638940166769
aF-9.601638940166769
aF-9.601638940166769
aF-6.557116502443346
aF-9.601638940166769
aF-5.090779433649919
aF-4.98651842332551
aF-6.557116502443346
aF-5.6698133074424435
aF-4.076186001034985
aF-9.601638940166769
aF-6.557116502443346
aF-5.888066873462462
aF-9.601638940166769
aF-5.6698133074424435
aF-5.6698133074424435
aF-5.090779433649919
aF-4.249780806690702
aF-4.805848394570028
aF-9.601638940166769
aF-9.601638940166769
aF-9.601638940166769
aF-6.1676517356816225
aF-7.203743667368399
aF-6.1676517356816225
aF-9.601638940166769
aF-7.203743667368399
aF-9.601638940166769
aF-9.601638940166769
aF-9.601638940166769
aF-9.601638940166769
aF-9.601638940166769
aF-9.601638940166769
aF-9.601638940166769
aF-6.1676517356816225
aF-9.601638940166769
aF-7.203743667368399
aF-5.888066873462462
aF-7.203743667368399
aF-9.601638940166769
aF-9.601638940166769
aF-9.601638940166769
aF-9.601638940166769
aF-9.601638940166769
aF-9.601638940166769
aF-9.601638940166769
aF-6.557116502443346
aF-6.1676517356816225
aF-9.601638940166769
aF-9.601638940166769
aF-6.1676517356816225
aF-5.090779433649919
aF-6.1676517356816225
aF-4.726441616965618
aF-5.888066873462462
aF-6.557116502443346
aF-4.459975383664109
aF-9.601638940166769
aF-7.203743667368399
aF-5.338959063125454
aF-5.090779433649919
aF-9.601638940166769
aF-9.601638940166769
aF-5.338959063125454
aF-9.601638940166769
aF-9.601638940166769
aF-6.1676517356816225
aF-6.1676517356816225
aF-6.557116502443346
aF-9.601638940166769
aF-9.601638940166769
aF-7.203743667368399
aF-5.888066873462462
aF-9.601638940166769
aF-4.298334032107693
aF-5.338959063125454
aF-9.601638940166769
aF-4.459975383664109
aF-6.1676517356816225
aF-5.490765075993458
aF-6.557116502443346
aF-9.601638940166769
aF-6.557116502443346
aF-5.338959063125454
aF-9.601638940166769
aF-5.490765075993458
aF-6.1676517356816225
aF-9.601638940166769
aF-9.601638940166769
aF-7.203743667368399
aF-4.805848394570028
aF-4.805848394570028
aF-6.557116502443346
aF-9.601638940166769
aF-9.601638940166769
aF-9.601638940166769
aF-3.685436877559334
aF-5.338959063125454
aF-9.601638940166769
aF-4.726441616965618
aF-9.601638940166769
aF-9.601638940166769
aF-4.116842006676114
aF-4.805848394570028
aF-4.5843591033518445
aF-6.557116502443346
aF-9.601638940166769
aF-9.601638940166769
aF-7.203743667368399
aF-9.601638940166769
aF-5.6698133074424435
aF-7.203743667368399
aF-5.6698133074424435
aF-5.338959063125454
aF-4.98651842332551
aF-6.557116502443346
aF-9.601638940166769
aF-9.601638940166769
aF-9.601638940166769
aF-5.6698133074424435
aF-9.601638940166769
aF-7.203743667368399
aF-9.601638940166769
aF-6.557116502443346
aF-9.601638940166769
aF-2.765379662889702
aF-6.557116502443346
aF-6.557116502443346
aF-7.203743667368399
aF-5.338959063125454
aF-5.888066873462462
aF-7.203743667368399
aF-6.1676517356816225
aF-9.601638940166769
aF-6.557116502443346
aF-4.726441616965618
aF-9.601638940166769
aF-7.203743667368399
aF-4.459975383664109
aF-7.203743667368399
aF-6.1676517356816225
aF-6.1676517356816225
aF-6.557116502443346
aF-4.652879049788601
aF-9.601638940166769
aF-9.601638940166769
aF-9.601638940166769
aF-9.601638940166769
aF-9.601638940166769
aF-9.601638940166769
aF-9.601638940166769
aF-9.601638940166769
aF-9.601638940166769
aF-6.557116502443346
aF-9.601638940166769
aF-9.601638940166769
aF-9.601638940166769
aF-6.557116502443346
aF-9.601638940166769
aF-9.601638940166769
aF-6.557116502443346
aF-9.601638940166769
aF-9.601638940166769
aF-9.601638940166769
aF-9.601638940166769
aF-9.601638940166769
aF-9.601638940166769
aF-9.601638940166769
aF-4.652879049788601
aF-9.601638940166769
aF-4.520234575182306
aF-9.601638940166769
aF-9.601638940166769
aF-5.6698133074424435
aF-5.888066873462462
aF-6.557116502443346
aF-9.601638940166769
aF-7.203743667368399
aF-9.601638940166769
aF-9.601638940166769
aF-4.520234575182306
aF-7.203743667368399
aF-7.203743667368399
aF-9.601638940166769
aF-9.601638940166769
aF-9.601638940166769
aF-9.601638940166769
aF-9.601638940166769
aF-9.601638940166769
aF-6.557116502443346
aF-9.601638940166769
aF-9.601638940166769
aF-9.601638940166769
aF-9.601638940166769
aF-7.203743667368399
aF-9.601638940166769
aF-9.601638940166769
aF-9.601638940166769
aF-9.601638940166769
aF-9.601638940166769
aF-3.512594064719923
aF-3.7408527167009034
aF-4.726441616965618
aF-9.601638940166769
aF-6.557116502443346
aF-3.9283156729952764
aF-4.652879049788601
aF-6.1676517356816225
aF-4.805848394570028
aF-9.601638940166769
aF-5.6698133074424435
aF-9.601638940166769
aF-9.601638940166769
aF-9.601638940166769
aF-9.601638940166769
aF-9.601638940166769
aF-7.203743667368399
aF-9.601638940166769
aF-7.203743667368399
aF-9.601638940166769
aF-9.601638940166769
aF-6.1676517356816225
aF-5.6698133074424435
aF-5.888066873462462
aF-9.601638940166769
aF-9.601638940166769
aF-5.490765075993458
aF-7.203743667368399
aF-9.601638940166769
aF-3.7127609818338883
aF-5.6698133074424435
aF-9.601638940166769
aF-7.203743667368399
aF-9.601638940166769
aF-5.888066873462462
aF-5.090779433649919
aF-6.557116502443346
aF-3.9283156729952764
aF-9.601638940166769
aF-7.203743667368399
aF-5.888066873462462
aF-6.1676517356816225
aF-7.203743667368399
aF-6.1676517356816225
aF-7.203743667368399
aF-9.601638940166769
aF-9.601638940166769
aF-5.2071897854943305
aF-7.203743667368399
aF-9.601638940166769
aF-9.601638940166769
aF-9.601638940166769
aF-7.203743667368399
aF-5.888066873462462
aF-4.892108738854435
aF-6.1676517356816225
aF-9.601638940166769
aF-7.203743667368399
aF-9.601638940166769
aF-9.601638940166769
aF-9.601638940166769
aF-6.557116502443346
aF-6.557116502443346
aF-9.601638940166769
aF-9.601638940166769
aF-7.203743667368399
aF-9.601638940166769
aF-6.1676517356816225
aF-6.557116502443346
aF-9.601638940166769
aF-9.601638940166769
aF-9.601638940166769
aF-9.601638940166769
aF-9.601638940166769
aF-5.6698133074424435
aF-3.0349665103635286
aF-4.805848394570028
aF-5.338959063125454
aF-9.601638940166769
aF-5.090779433649919
aF-9.601638940166769
aF-6.557116502443346
aF-9.601638940166769
aF-3.6329313801814034
aF-5.6698133074424435
aF-3.2542497305107587
aF-9.601638940166769
aF-5.490765075993458
aF-9.601638940166769
aF-5.490765075993458
aF-5.2071897854943305
aF-9.601638940166769
aF-9.601638940166769
aF-9.601638940166769
aF-5.888066873462462
aF-3.8945286754178934
aF-5.888066873462462
aF-9.601638940166769
aF-9.601638940166769
aF-5.490765075993458
aF-6.557116502443346
aF-9.601638940166769
aF-9.601638940166769
aF-4.5843591033518445
aF-9.601638940166769
aF-6.1676517356816225
aF-9.601638940166769
aF-9.601638940166769
aF-4.726441616965618
aF-5.490765075993458
aF-7.203743667368399
aF-7.203743667368399
aF-9.601638940166769
aF-7.203743667368399
aF-9.601638940166769
aF-4.726441616965618
aF-7.203743667368399
aF-5.888066873462462
aF-6.1676517356816225
aF-6.557116502443346
aF-7.203743667368399
aF-9.601638940166769
aF-5.090779433649919
aF-9.601638940166769
aF-4.98651842332551
aF-7.203743667368399
aF-9.601638940166769
aF-9.601638940166769
aF-9.601638940166769
aF-5.6698133074424435
aF-9.601638940166769
aF-2.7029244058367814
aF-4.037118532844076
aF-5.888066873462462
aF-7.203743667368399
aF-4.805848394570028
aF-9.601638940166769
aF-9.601638940166769
aF-4.459975383664109
aF-6.1676517356816225
aF-9.601638940166769
aF-9.601638940166769
aF-9.601638940166769
aF-9.601638940166769
aF-5.090779433649919
aF-9.601638940166769
aF-5.6698133074424435
aF-9.601638940166769
aF-5.6698133074424435
aF-9.601638940166769
aF-5.6698133074424435
aF-9.601638940166769
aF-9.601638940166769
aF-6.557116502443346
aF-6.1676517356816225
aF-9.601638940166769
aF-4.249780806690702
aF-9.601638940166769
aF-4.726441616965618
aF-5.338959063125454
aF-9.601638940166769
aF-5.090779433649919
aF-9.601638940166769
aF-9.601638940166769
aF-9.601638940166769
aF-9.601638940166769
aF-5.338959063125454
aF-7.203743667368399
aF-6.557116502443346
aF-5.888066873462462
aF-7.203743667368399
aF-9.601638940166769
aF-9.601638940166769
aF-4.726441616965618
aF-7.203743667368399
aF-9.601638940166769
aF-7.203743667368399
aF-9.601638940166769
aF-9.601638940166769
aF-6.557116502443346
aF-5.6698133074424435
aF-4.349365512120139
aF-7.203743667368399
aF-5.888066873462462
aF-6.557116502443346
aF-7.203743667368399
aF-5.6698133074424435
aF-7.203743667368399
aF-7.203743667368399
aF-9.601638940166769
aF-7.203743667368399
aF-4.5843591033518445
aF-6.557116502443346
aF-5.490765075993458
aF-5.888066873462462
aF-9.601638940166769
aF-7.203743667368399
aF-7.203743667368399
aF-9.601638940166769
aF-9.601638940166769
aF-9.601638940166769
aF-7.203743667368399
aF-7.203743667368399
aF-9.601638940166769
aF-9.601638940166769
aF-9.601638940166769
aF-9.601638940166769
aF-9.601638940166769
aF-9.601638940166769
aF-9.601638940166769
aF-9.601638940166769
aF-9.601638940166769
aF-3.658839565040068
aF-9.601638940166769
aF-7.203743667368399
aF-9.601638940166769
aF-7.203743667368399
aF-4.203476238649016
aF-9.601638940166769
aF-6.1676517356816225
aF-6.1676517356816225
aF-5.6698133074424435
aF-7.203743667368399
aF-9.601638940166769
aF-3.9283156729952764
aF-7.203743667368399
aF-9.601638940166769
aF-9.601638940166769
aF-5.090779433649919
aF-9.601638940166769
aF-7.203743667368399
aF-6.557116502443346
aF-6.557116502443346
aF-9.601638940166769
aF-9.601638940166769
aF-6.1676517356816225
aF-6.1676517356816225
aF-9.601638940166769
aF-9.601638940166769
aF-5.338959063125454
aF-7.203743667368399
aF-9.601638940166769
aF-6.557116502443346
aF-9.601638940166769
aF-9.601638940166769
aF-7.203743667368399
aF-5.888066873462462
aF-7.203743667368399
aF-9.601638940166769
aF-9.601638940166769
aF-9.601638940166769
aF-7.203743667368399
aF-5.888066873462462
aF-6.1676517356816225
aF-5.888066873462462
aF-9.601638940166769
aF-4.037118532844076
aF-5.490765075993458
aF-9.601638940166769
aF-7.203743667368399
aF-7.203743667368399
aF-6.557116502443346
aF-6.1676517356816225
aF-9.601638940166769
aF-9.601638940166769
aF-6.557116502443346
aF-5.888066873462462
aF-9.601638940166769
aF-9.601638940166769
aF-9.601638940166769
aF-9.601638940166769
aF-9.601638940166769
aF-7.203743667368399
aF-6.557116502443346
aF-4.403141908900944
aF-6.1676517356816225
aF-9.601638940166769
aF-9.601638940166769
aF-9.601638940166769
aF-9.601638940166769
aF-5.888066873462462
aF-9.601638940166769
aF-6.1676517356816225
aF-9.601638940166769
aF-9.601638940166769
aF-9.601638940166769
aF-7.203743667368399
aF-9.601638940166769
aF-9.601638940166769
aF-9.601638940166769
aF-9.601638940166769
aF-9.601638940166769
aF-9.601638940166769
aF-7.203743667368399
aF-5.888066873462462
aF-9.601638940166769
aF-9.601638940166769
aF-9.601638940166769
aF-4.98651842332551
aF-9.601638940166769
aF-5.090779433649919
aF-6.1676517356816225
aF-4.726441616965618
aF-6.1676517356816225
aF-9.601638940166769
aF-9.601638940166769
aF-7.203743667368399
aF-5.888066873462462
aF-7.203743667368399
aF-5.6698133074424435
aF-6.557116502443346
aF-9.601638940166769
aF-7.203743667368399
aF-7.203743667368399
aF-6.557116502443346
aF-5.888066873462462
aF-9.601638940166769
aF-6.557116502443346
aF-9.601638940166769
aF-7.203743667368399
aF-9.601638940166769
aF-7.203743667368399
aF-9.601638940166769
aF-9.601638940166769
aF-9.601638940166769
aF-9.601638940166769
aF-7.203743667368399
aF-9.601638940166769
aF-9.601638940166769
aF-9.601638940166769
aF-7.203743667368399
aF-7.203743667368399
aF-9.601638940166769
aF-7.203743667368399
aF-9.601638940166769
aF-6.1676517356816225
aF-9.601638940166769
aF-9.601638940166769
aF-7.203743667368399
aF-9.601638940166769
aF-5.6698133074424435
aF-7.203743667368399
aF-7.203743667368399
aF-5.490765075993458
aF-6.1676517356816225
aF-7.203743667368399
aF-6.557116502443346
aF-9.601638940166769
aF-9.601638940166769
aF-4.403141908900944
aF-9.601638940166769
aF-3.8945286754178934
aF-9.601638940166769
aF-3.658839565040068
aF-9.601638940166769
aF-9.601638940166769
aF-5.2071897854943305
aF-7.203743667368399
aF-4.892108738854435
aF-6.557116502443346
aF-6.557116502443346
aF-9.601638940166769
aF-6.557116502443346
aF-9.601638940166769
aF-9.601638940166769
aF-9.601638940166769
aF-5.6698133074424435
aF-6.557116502443346
aF-7.203743667368399
aF-7.203743667368399
aF-9.601638940166769
aF-5.6698133074424435
aF-9.601638940166769
aF-7.203743667368399
aF-7.203743667368399
aF-9.601638940166769
aF-6.1676517356816225
aF-5.338959063125454
aF-7.203743667368399
aF-9.601638940166769
aF-9.601638940166769
aF-6.557116502443346
aF-5.490765075993458
aF-5.888066873462462
aF-5.090779433649919
aF-9.601638940166769
aF-6.1676517356816225
aF-9.601638940166769
aF-4.116842006676114
aF-9.601638940166769
aF-9.601638940166769
aF-9.601638940166769
aF-9.601638940166769
aF-4.5843591033518445
aF-5.888066873462462
aF-6.557116502443346
aF-5.6698133074424435
aF-9.601638940166769
aF-3.446780846150351
aF-5.338959063125454
aF-5.338959063125454
aF-4.726441616965618
aF-6.557116502443346
aF-7.203743667368399
aF-5.888066873462462
aF-7.203743667368399
aF-9.601638940166769
aF-9.601638940166769
aF-9.601638940166769
aF-5.090779433649919
aF-5.490765075993458
aF-9.601638940166769
aF-5.6698133074424435
aF-6.557116502443346
aF-9.601638940166769
aF-9.601638940166769
aF-5.490765075993458
aF-7.203743667368399
aF-9.601638940166769
aF-7.203743667368399
aF-7.203743667368399
aF-9.601638940166769
aF-9.601638940166769
aF-9.601638940166769
aF-9.601638940166769
aF-9.601638940166769
aF-7.203743667368399
aF-7.203743667368399
aF-9.601638940166769
aF-9.601638940166769
aF-7.203743667368399
aF-9.601638940166769
aF-3.2542497305107587
aF-4.98651842332551
aF-3.861846027987535
aF-9.601638940166769
aF-9.601638940166769
aF-5.090779433649919
aF-5.490765075993458
aF-9.601638940166769
aF-9.601638940166769
aF-9.601638940166769
aF-9.601638940166769
aF-9.601638940166769
aF-9.601638940166769
aF-9.601638940166769
aF-6.557116502443346
aF-9.601638940166769
aF-9.601638940166769
aF-9.601638940166769
aF-9.601638940166769
aF-7.203743667368399
aF-9.601638940166769
aF-7.203743667368399
aF-9.601638940166769
aF-9.601638940166769
aF-9.601638940166769
aF-9.601638940166769
aF-9.601638940166769
aF-7.203743667368399
aF-5.888066873462462
aF-7.203743667368399
aF-7.203743667368399
aF-9.601638940166769
aF-9.601638940166769
aF-6.1676517356816225
aF-9.601638940166769
aF-9.601638940166769
aF-6.1676517356816225
aF-9.601638940166769
aF-7.203743667368399
aF-9.601638940166769
aF-6.557116502443346
aF-9.601638940166769
aF-9.601638940166769
aF-5.6698133074424435
aF-6.1676517356816225
aF-6.1676517356816225
aF-9.601638940166769
aF-9.601638940166769
aF-4.652879049788601
aF-9.601638940166769
aF-9.601638940166769
aF-9.601638940166769
aF-9.601638940166769
aF-7.203743667368399
aF-6.557116502443346
aF-9.601638940166769
aF-5.6698133074424435
aF-6.1676517356816225
aF-7.203743667368399
aF-9.601638940166769
aF-6.557116502443346
aF-9.601638940166769
aF-5.888066873462462
aF-9.601638940166769
aF-9.601638940166769
aF-5.338959063125454
aF-7.203743667368399
aF-9.601638940166769
aF-9.601638940166769
aF-7.203743667368399
aF-5.490765075993458
aF-7.203743667368399
aF-6.1676517356816225
aF-9.601638940166769
aF-5.888066873462462
aF-6.557116502443346
aF-6.1676517356816225
aF-6.1676517356816225
aF-9.601638940166769
aF-4.892108738854435
aF-6.1676517356816225
aF-6.1676517356816225
aF-7.203743667368399
aF-4.98651842332551
aF-7.203743667368399
aF-7.203743667368399
aF-9.601638940166769
aF-4.203476238649016
aF-9.601638940166769
aF-5.6698133074424435
aF-5.490765075993458
aF-1.3098418351180352
aF-9.601638940166769
aF-7.203743667368399
aF-7.203743667368399
aF-9.601638940166769
aF-9.601638940166769
aF-6.1676517356816225
aF-7.203743667368399
aF-5.888066873462462
aF-9.601638940166769
aF-6.1676517356816225
aF-3.271918034644073
aF-6.557116502443346
aF-9.601638940166769
aF-7.203743667368399
aF-5.090779433649919
aF-9.601638940166769
aF-9.601638940166769
aF-9.601638940166769
aF-9.601638940166769
aF-9.601638940166769
aF-9.601638940166769
aF-5.6698133074424435
aF-6.557116502443346
aF-9.601638940166769
aF-9.601638940166769
aF-9.601638940166769
aF-9.601638940166769
aF-9.601638940166769
aF-5.888066873462462
aF-2.7029244058367814
aF-6.1676517356816225
aF-9.601638940166769
aF-3.3458888984134023
aF-3.154333077625556
aF-7.203743667368399
aF-5.888066873462462
aF-3.9283156729952764
aF-6.1676517356816225
aF-9.601638940166769
aF-5.6698133074424435
aF-5.490765075993458
aF-7.203743667368399
aF-3.7408527167009034
aF-9.601638940166769
aF-6.557116502443346
aF-5.338959063125454
aF-9.601638940166769
aF-6.1676517356816225
aF-9.601638940166769
aF-9.601638940166769
aF-7.203743667368399
aF-9.601638940166769
aF-9.601638940166769
aF-7.203743667368399
aF-4.652879049788601
aF-9.601638940166769
aF-9.601638940166769
aF-6.1676517356816225
aF-5.090779433649919
aF-9.601638940166769
aF-7.203743667368399
aF-9.601638940166769
aF-5.6698133074424435
aF-7.203743667368399
aF-7.203743667368399
aF-7.203743667368399
aF-9.601638940166769
aF-9.601638940166769
aF-5.6698133074424435
aF-9.601638940166769
aF-7.203743667368399
aF-9.601638940166769
aF-9.601638940166769
aF-7.203743667368399
aF-9.601638940166769
aF-9.601638940166769
aF-4.726441616965618
aF-6.557116502443346
aF-7.203743667368399
aF-4.98651842332551
aF-9.601638940166769
aF-9.601638940166769
aF-9.601638940166769
aF-4.652879049788601
aF-7.203743667368399
aF-4.403141908900944
aF-6.1676517356816225
aF-9.601638940166769
aF-2.0890213954922583
aF-9.601638940166769
aF-6.557116502443346
aF-7.203743667368399
aF-9.601638940166769
aF-7.203743667368399
aF-9.601638940166769
aF-9.601638940166769
aF-5.888066873462462
aF-9.601638940166769
aF-9.601638940166769
aF-5.6698133074424435
aF-9.601638940166769
aF-3.685436877559334
aF-5.090779433649919
aF-6.1676517356816225
aF-9.601638940166769
aF-5.090779433649919
aF-9.601638940166769
aF-2.248557019651337
aF-9.601638940166769
aF-9.601638940166769
aF-5.338959063125454
aF-2.6829437211462976
aF-9.601638940166769
aF-9.601638940166769
aF-9.601638940166769
aF-7.203743667368399
aF-9.601638940166769
aF-6.1676517356816225
aF-7.203743667368399
aF-9.601638940166769
aF-6.557116502443346
aF-4.403141908900944
aF-6.1676517356816225
aF-9.601638940166769
aF-4.98651842332551
aF-5.490765075993458
aF-9.601638940166769
aF-9.601638940166769
aF-4.805848394570028
aF-9.601638940166769
aF-9.601638940166769
aF-9.601638940166769
aF-9.601638940166769
aF-6.557116502443346
aF-9.601638940166769
aF-4.98651842332551
aF-3.685436877559334
aF-4.726441616965618
aF-4.726441616965618
aF-3.8301978170367534
aF-6.1676517356816225
aF-9.601638940166769
aF-5.2071897854943305
aF-5.888066873462462
aF-9.601638940166769
aF-4.98651842332551
aF-4.892108738854435
aF-9.601638940166769
aF-9.601638940166769
aF-9.601638940166769
aF-7.203743667368399
aF-9.601638940166769
aF-9.601638940166769
aF-9.601638940166769
aF-7.203743667368399
aF-9.601638940166769
aF-4.726441616965618
aF-6.1676517356816225
aF-7.203743667368399
aF-6.557116502443346
aF-9.601638940166769
aF-9.601638940166769
aF-6.1676517356816225
aF-6.557116502443346
aF-4.805848394570028
aF-4.892108738854435
aF-3.7127609818338883
aF-6.1676517356816225
aF-5.090779433649919
aF-7.203743667368399
aF-5.888066873462462
aF-6.557116502443346
aF-6.1676517356816225
aF-9.601638940166769
aF-9.601638940166769
aF-9.601638940166769
aF-9.601638940166769
aF-9.601638940166769
aF-9.601638940166769
aF-9.601638940166769
aF-4.203476238649016
aF-9.601638940166769
aF-6.557116502443346
aF-6.557116502443346
aF-9.601638940166769
aF-5.6698133074424435
aF-9.601638940166769
aF-5.888066873462462
aF-5.888066873462462
aF-4.1592212296449755
aF-9.601638940166769
aF-9.601638940166769
aF-7.203743667368399
aF-9.601638940166769
aF-5.6698133074424435
aF-9.601638940166769
aF-6.1676517356816225
aF-9.601638940166769
aF-5.6698133074424435
aF-9.601638940166769
aF-9.601638940166769
aF-7.203743667368399
aF-9.601638940166769
aF-9.601638940166769
aF-9.601638940166769
aF-7.203743667368399
aF-9.601638940166769
aF-9.601638940166769
aF-9.601638940166769
aF-5.6698133074424435
aF-7.203743667368399
aF-9.601638940166769
aF-5.888066873462462
aF-4.5843591033518445
aF-6.557116502443346
aF-9.601638940166769
aF-5.090779433649919
aF-5.490765075993458
aF-5.888066873462462
aF-9.601638940166769
aF-7.203743667368399
aF-9.601638940166769
aF-5.888066873462462
aF-6.1676517356816225
aF-9.601638940166769
aF-9.601638940166769
aF-7.203743667368399
aF-4.805848394570028
aF-9.601638940166769
aF-5.490765075993458
aF-6.557116502443346
aF-9.601638940166769
aF-6.1676517356816225
aF-5.338959063125454
aF-7.203743667368399
aF-7.203743667368399
aF-5.888066873462462
aF-9.601638940166769
aF-5.888066873462462
aF-7.203743667368399
aF-9.601638940166769
aF-9.601638940166769
aF-7.203743667368399
aF-4.349365512120139
aF-4.98651842332551
aF-5.6698133074424435
aF-6.557116502443346
aF-9.601638940166769
aF-9.601638940166769
aF-9.601638940166769
aF-9.601638940166769
aF-9.601638940166769
aF-9.601638940166769
aF-9.601638940166769
aF-9.601638940166769
aF-9.601638940166769
aF-5.338959063125454
aF-5.888066873462462
aF-9.601638940166769
aF-9.601638940166769
aF-9.601638940166769
aF-9.601638940166769
aF-5.888066873462462
aF-7.203743667368399
aF-9.601638940166769
aF-9.601638940166769
aF-9.601638940166769
aF-5.490765075993458
aF-3.7127609818338883
aF-9.601638940166769
aF-9.601638940166769
aF-4.298334032107693
aF-9.601638940166769
aF-4.892108738854435
aF-5.090779433649919
aF-9.601638940166769
aF-9.601638940166769
aF-9.601638940166769
aF-6.557116502443346
aF-9.601638940166769
aF-9.601638940166769
aF-9.601638940166769
aF-9.601638940166769
aF-9.601638940166769
aF-9.601638940166769
aF-9.601638940166769
aF-5.2071897854943305
aF-7.203743667368399
aF-9.601638940166769
aF-6.1676517356816225
aF-9.601638940166769
aF-9.601638940166769
aF-3.658839565040068
aF-5.6698133074424435
aF-9.601638940166769
aF-6.1676517356816225
aF-6.557116502443346
aF-5.2071897854943305
aF-9.601638940166769
aF-9.601638940166769
aF-5.338959063125454
aF-9.601638940166769
aF-9.601638940166769
aF-9.601638940166769
aF-9.601638940166769
aF-6.557116502443346
aF-4.203476238649016
aF-4.726441616965618
aF-9.601638940166769
aF-5.888066873462462
aF-9.601638940166769
aF-7.203743667368399
aF-9.601638940166769
aF-9.601638940166769
aF-5.888066873462462
aF-7.203743667368399
aF-7.203743667368399
aF-9.601638940166769
aF-9.601638940166769
aF-5.338959063125454
aF-6.1676517356816225
aF-9.601638940166769
aF-6.1676517356816225
aF-5.2071897854943305
aF-5.888066873462462
aF-4.726441616965618
aF-5.6698133074424435
aF-9.601638940166769
aF-9.601638940166769
aF-9.601638940166769
aF-9.601638940166769
aF-9.601638940166769
aF-9.601638940166769
aF-9.601638940166769
aF-6.557116502443346
aF-9.601638940166769
aF-7.203743667368399
aF-6.557116502443346
aF-5.888066873462462
aF-9.601638940166769
aF-9.601638940166769
aF-6.557116502443346
aF-6.557116502443346
aF-7.203743667368399
aF-6.557116502443346
aF-9.601638940166769
aF-5.490765075993458
aF-5.888066873462462
aF-7.203743667368399
aF-7.203743667368399
aF-5.6698133074424435
aF-7.203743667368399
aF-9.601638940166769
aF-9.601638940166769
aF-7.203743667368399
aF-9.601638940166769
aF-9.601638940166769
aF-9.601638940166769
aF-7.203743667368399
aF-9.601638940166769
aF-5.888066873462462
aF-5.338959063125454
aF-9.601638940166769
aF-4.726441616965618
aF-9.601638940166769
aF-3.861846027987535
aF-5.888066873462462
aF-6.557116502443346
aF-4.805848394570028
aF-5.338959063125454
aF-4.726441616965618
aF-4.726441616965618
aF-7.203743667368399
aF-7.203743667368399
aF-7.203743667368399
aF-9.601638940166769
aF-9.601638940166769
aF-9.601638940166769
aF-9.601638940166769
aF-9.601638940166769
aF-9.601638940166769
aF-6.557116502443346
aF-7.203743667368399
aF-7.203743667368399
aF-9.601638940166769
aF-5.490765075993458
aF-9.601638940166769
aF-9.601638940166769
aF-4.298334032107693
aF-9.601638940166769
aF-6.1676517356816225
aF-9.601638940166769
aF-9.601638940166769
aF-9.601638940166769
aF-9.601638940166769
aF-9.601638940166769
aF-9.601638940166769
aF-9.601638940166769
aF-9.601638940166769
aF-9.601638940166769
aF-9.601638940166769
aF-9.601638940166769
aF-9.601638940166769
aF-9.601638940166769
aF-9.601638940166769
aF-9.601638940166769
aF-9.601638940166769
aF-9.601638940166769
aF-7.203743667368399
aF-7.203743667368399
aF-9.601638940166769
aF-5.888066873462462
aF-9.601638940166769
aF-9.601638940166769
aF-5.888066873462462
aF-5.090779433649919
aF-6.1676517356816225
aF-9.601638940166769
aF-6.557116502443346
aF-7.203743667368399
aF-6.557116502443346
aF-7.203743667368399
aF-6.1676517356816225
aF-7.203743667368399
aF-9.601638940166769
aF-6.1676517356816225
aF-5.6698133074424435
aF-9.601638940166769
aF-3.9283156729952764
aF-4.98651842332551
aF-9.601638940166769
aF-9.601638940166769
aF-7.203743667368399
aF-9.601638940166769
aF-9.601638940166769
aF-9.601638940166769
aF-9.601638940166769
aF-5.490765075993458
aF-9.601638940166769
aF-6.557116502443346
aF-9.601638940166769
aF-7.203743667368399
aF-9.601638940166769
aF-9.601638940166769
aF-9.601638940166769
aF-9.601638940166769
aF-9.601638940166769
aF-9.601638940166769
aF-9.601638940166769
aF-9.601638940166769
aF-9.601638940166769
aF-7.203743667368399
aF-9.601638940166769
aF-9.601638940166769
aF-6.1676517356816225
aF-9.601638940166769
aF-9.601638940166769
aF-6.1676517356816225
aF-9.601638940166769
aF-7.203743667368399
aF-5.090779433649919
aF-3.7697564628832523
aF-9.601638940166769
aF-9.601638940166769
aF-7.203743667368399
aF-9.601638940166769
aF-9.601638940166769
aF-9.601638940166769
aF-9.601638940166769
aF-9.601638940166769
aF-9.601638940166769
aF-7.203743667368399
aF-5.6698133074424435
aF-5.490765075993458
aF-7.203743667368399
aF-7.203743667368399
aF-6.557116502443346
aF-6.1676517356816225
aF-9.601638940166769
aF-7.203743667368399
aF-9.601638940166769
aF-9.601638940166769
aF-9.601638940166769
aF-7.203743667368399
aF-9.601638940166769
aF-5.338959063125454
aF-6.1676517356816225
aF-9.601638940166769
aF-9.601638940166769
aF-6.557116502443346
aF-9.601638940166769
aF-9.601638940166769
aF-3.446780846150351
aF-6.557116502443346
aF-7.203743667368399
aF-6.557116502443346
aF-6.1676517356816225
aF-9.601638940166769
aF-2.91577799309841
aF-4.1592212296449755
aF-6.557116502443346
aF-9.601638940166769
aF-9.601638940166769
aF-1.9562412407381355
aF-9.601638940166769
aF-7.203743667368399
aF-9.601638940166769
aF-7.203743667368399
aF-9.601638940166769
aF-9.601638940166769
aF-6.557116502443346
aF-9.601638940166769
aF-5.888066873462462
aF-9.601638940166769
aF-9.601638940166769
aF-9.601638940166769
aF-9.601638940166769
aF-4.98651842332551
aF-4.349365512120139
aF-5.6698133074424435
aF-4.652879049788601
aF-4.98651842332551
aF-9.601638940166769
aF-5.888066873462462
aF-5.490765075993458
aF-4.249780806690702
aF-6.1676517356816225
aF-9.601638940166769
aF-6.557116502443346
aF-9.601638940166769
aF-9.601638940166769
aF-9.601638940166769
aF-9.601638940166769
aF-5.090779433649919
aF-6.1676517356816225
aF-9.601638940166769
aF-3.236888183314858
aF-6.1676517356816225
aF-9.601638940166769
aF-9.601638940166769
aF-9.601638940166769
aF-7.203743667368399
aF-6.557116502443346
aF-5.6698133074424435
aF-4.98651842332551
aF-9.601638940166769
aF-6.557116502443346
aF-6.1676517356816225
aF-7.203743667368399
aF-7.203743667368399
aF-9.601638940166769
aF-4.652879049788601
aF-4.520234575182306
aF-6.557116502443346
aF-9.601638940166769
aF-5.6698133074424435
aF-9.601638940166769
aF-6.557116502443346
aF-6.1676517356816225
aF-6.1676517356816225
aF-9.601638940166769
aF-6.1676517356816225
aF-5.2071897854943305
aF-9.601638940166769
aF-9.601638940166769
aF-9.601638940166769
aF-6.1676517356816225
aF-7.203743667368399
aF-5.2071897854943305
aF-9.601638940166769
aF-9.601638940166769
aF-9.601638940166769
aF-5.888066873462462
aF-6.557116502443346
aF-9.601638940166769
aF-3.7697564628832523
aF-9.601638940166769
aF-3.512594064719923
aF-6.1676517356816225
aF-4.1592212296449755
aF-9.601638940166769
aF-9.601638940166769
aF-9.601638940166769
aF-9.601638940166769
aF-7.203743667368399
aF-6.557116502443346
aF-9.601638940166769
aF-7.203743667368399
aF-6.1676517356816225
aF-9.601638940166769
aF-9.601638940166769
aF-9.601638940166769
aF-9.601638940166769
aF-7.203743667368399
aF-7.203743667368399
aF-5.6698133074424435
aF-6.1676517356816225
aF-5.888066873462462
aF-4.892108738854435
aF-9.601638940166769
aF-6.557116502443346
aF-9.601638940166769
aF-9.601638940166769
aF-5.490765075993458
aF-7.203743667368399
aF-7.203743667368399
aF-5.6698133074424435
aF-5.490765075993458
aF-9.601638940166769
aF-4.726441616965618
aF-4.98651842332551
aF-9.601638940166769
aF-4.98651842332551
aF-9.601638940166769
aF-9.601638940166769
aF-5.6698133074424435
aF-9.601638940166769
aF-9.601638940166769
aF-5.6698133074424435
aF-6.557116502443346
aF-9.601638940166769
aF-5.888066873462462
aF-6.1676517356816225
aF-6.557116502443346
aF-9.601638940166769
aF-9.601638940166769
aF-9.601638940166769
aF-9.601638940166769
aF-7.203743667368399
aF-9.601638940166769
aF-9.601638940166769
aF-5.888066873462462
aF-7.203743667368399
aF-7.203743667368399
aF-9.601638940166769
aF-6.557116502443346
aF-9.601638940166769
aF-4.459975383664109
aF-4.892108738854435
aF-7.203743667368399
aF-6.1676517356816225
aF-9.601638940166769
aF-6.557116502443346
aF-7.203743667368399
aF-3.5590061064843876
aF-6.557116502443346
aF-9.601638940166769
aF-6.1676517356816225
aF-9.601638940166769
aF-9.601638940166769
aF-9.601638940166769
aF-9.601638940166769
aF-9.601638940166769
aF-9.601638940166769
aF-9.601638940166769
aF-9.601638940166769
aF-9.601638940166769
aF-7.203743667368399
aF-7.203743667368399
aF-9.601638940166769
aF-7.203743667368399
aF-9.601638940166769
aF-7.203743667368399
aF-9.601638940166769
aF-7.203743667368399
aF-9.601638940166769
aF-7.203743667368399
aF-9.601638940166769
aF-5.6698133074424435
aF-6.557116502443346
aF-6.1676517356816225
aF-7.203743667368399
aF-3.658839565040068
aF-7.203743667368399
aF-7.203743667368399
aF-4.805848394570028
aF-7.203743667368399
aF-7.203743667368399
aF-9.601638940166769
aF-9.601638940166769
aF-7.203743667368399
aF-5.6698133074424435
aF-7.203743667368399
aF-6.1676517356816225
aF-9.601638940166769
aF-7.203743667368399
aF-7.203743667368399
aF-6.557116502443346
aF-9.601638940166769
aF-9.601638940166769
aF-5.490765075993458
aF-9.601638940166769
aF-9.601638940166769
aF-6.557116502443346
aF-9.601638940166769
aF-9.601638940166769
aF-7.203743667368399
aF-7.203743667368399
aF-9.601638940166769
aF-9.601638940166769
aF-9.601638940166769
aF-9.601638940166769
aF-6.557116502443346
aF-9.601638940166769
aF-7.203743667368399
aF-9.601638940166769
aF-9.601638940166769
aF-9.601638940166769
aF-5.090779433649919
aF-9.601638940166769
aF-7.203743667368399
aF-9.601638940166769
aF-6.557116502443346
aF-6.1676517356816225
aF-6.557116502443346
aF-9.601638940166769
aF-9.601638940166769
aF-9.601638940166769
aF-5.338959063125454
aF-9.601638940166769
aF-6.1676517356816225
aF-9.601638940166769
aF-5.490765075993458
aF-9.601638940166769
aF-9.601638940166769
aF-5.888066873462462
aF-9.601638940166769
aF-9.601638940166769
aF-4.459975383664109
aF-7.203743667368399
aF-7.203743667368399
aF-9.601638940166769
aF-5.2071897854943305
aF-9.601638940166769
aF-3.9632842708330234
aF-9.601638940166769
aF-5.6698133074424435
aF-5.490765075993458
aF-4.98651842332551
aF-7.203743667368399
aF-5.2071897854943305
aF-3.7408527167009034
aF-6.557116502443346
aF-7.203743667368399
aF-3.658839565040068
aF-7.203743667368399
aF-9.601638940166769
aF-9.601638940166769
aF-5.2071897854943305
aF-5.490765075993458
aF-9.601638940166769
aF-5.338959063125454
aF-4.5843591033518445
aF-7.203743667368399
aF-9.601638940166769
aF-6.1676517356816225
aF-7.203743667368399
aF-9.601638940166769
aF-7.203743667368399
aF-9.601638940166769
aF-9.601638940166769
aF-9.601638940166769
aF-5.6698133074424435
aF-5.888066873462462
aF-9.601638940166769
aF-9.601638940166769
aF-9.601638940166769
aF-5.2071897854943305
aF-9.601638940166769
aF-3.7995205647897063
aF-5.2071897854943305
aF-4.403141908900944
aF-5.090779433649919
aF-4.98651842332551
aF-6.557116502443346
aF-9.601638940166769
aF-9.601638940166769
aF-9.601638940166769
aF-5.6698133074424435
aF-9.601638940166769
aF-7.203743667368399
aF-9.601638940166769
aF-4.726441616965618
aF-7.203743667368399
aF-7.203743667368399
aF-6.557116502443346
aF-9.601638940166769
aF-9.601638940166769
aF-7.203743667368399
aF-9.601638940166769
aF-7.203743667368399
aF-9.601638940166769
aF-6.557116502443346
aF-4.203476238649016
aF-7.203743667368399
aF-5.490765075993458
aF-6.557116502443346
aF-5.888066873462462
aF-6.557116502443346
aF-9.601638940166769
aF-6.1676517356816225
aF-7.203743667368399
aF-4.403141908900944
aF-4.403141908900944
aF-9.601638940166769
aF-3.2030440056315617
aF-6.557116502443346
aF-9.601638940166769
aF-7.203743667368399
aF-7.203743667368399
aF-9.601638940166769
aF-9.601638940166769
aF-5.2071897854943305
aF-9.601638940166769
aF-5.090779433649919
aF-5.888066873462462
aF-6.1676517356816225
aF-5.888066873462462
aF-7.203743667368399
aF-6.557116502443346
aF-5.090779433649919
aF-9.601638940166769
aF-4.98651842332551
aF-5.6698133074424435
aF-7.203743667368399
aF-6.557116502443346
aF-6.557116502443346
aF-9.601638940166769
aF-9.601638940166769
aF-6.1676517356816225
aF-4.805848394570028
aF-5.6698133074424435
aF-6.1676517356816225
aF-6.557116502443346
aF-5.338959063125454
aF-6.557116502443346
aF-9.601638940166769
aF-9.601638940166769
aF-9.601638940166769
aF-6.1676517356816225
aF-9.601638940166769
aF-9.601638940166769
aF-9.601638940166769
aF-9.601638940166769
aF-9.601638940166769
aF-9.601638940166769
aF-5.6698133074424435
aF-7.203743667368399
aF-6.557116502443346
aF-5.2071897854943305
aF-4.98651842332551
aF-5.490765075993458
aF-4.805848394570028
aF-7.203743667368399
aF-4.892108738854435
aF-6.1676517356816225
aF-7.203743667368399
aF-9.601638940166769
aF-7.203743667368399
aF-9.601638940166769
aF-9.601638940166769
aF-9.601638940166769
aF-9.601638940166769
aF-9.601638940166769
aF-6.557116502443346
aF-4.1592212296449755
aF-9.601638940166769
aF-9.601638940166769
aF-3.236888183314858
aF-5.6698133074424435
aF-5.6698133074424435
aF-5.888066873462462
aF-9.601638940166769
aF-3.9283156729952764
aF-9.601638940166769
aF-9.601638940166769
aF-9.601638940166769
aF-6.1676517356816225
aF-5.490765075993458
aF-7.203743667368399
aF-9.601638940166769
aF-9.601638940166769
aF-9.601638940166769
aF-5.888066873462462
aF-7.203743667368399
aF-6.1676517356816225
aF-6.1676517356816225
aF-9.601638940166769
aF-3.4051948123722484
aF-5.090779433649919
aF-9.601638940166769
aF-6.557116502443346
aF-5.888066873462462
aF-9.601638940166769
aF-5.6698133074424435
aF-9.601638940166769
aF-6.557116502443346
aF-6.1676517356816225
aF-6.1676517356816225
aF-9.601638940166769
aF-4.037118532844076
aF-5.6698133074424435
aF-5.6698133074424435
aF-9.601638940166769
aF-7.203743667368399
aF-4.98651842332551
aF-9.601638940166769
aF-9.601638940166769
aF-9.601638940166769
aF-5.888066873462462
aF-6.557116502443346
aF-9.601638940166769
aF-9.601638940166769
aF-6.1676517356816225
aF-6.557116502443346
aF-9.601638940166769
aF-9.601638940166769
aF-9.601638940166769
aF-9.601638940166769
aF-9.601638940166769
aF-9.601638940166769
aF-6.557116502443346
aF-6.557116502443346
aF-6.557116502443346
aF-9.601638940166769
aF-9.601638940166769
aF-7.203743667368399
aF-7.203743667368399
aF-9.601638940166769
aF-9.601638940166769
aF-7.203743667368399
aF-9.601638940166769
aF-9.601638940166769
aF-6.1676517356816225
aF-7.203743667368399
aF-6.557116502443346
aF-7.203743667368399
aF-7.203743667368399
aF-4.98651842332551
aF-9.601638940166769
aF-7.203743667368399
aF-7.203743667368399
aF-6.557116502443346
aF-9.601638940166769
aF-6.557116502443346
aF-6.557116502443346
aF-7.203743667368399
aF-9.601638940166769
aF-7.203743667368399
aF-9.601638940166769
aF-9.601638940166769
aF-9.601638940166769
aF-7.203743667368399
aF-5.6698133074424435
aF-9.601638940166769
aF-9.601638940166769
aF-5.090779433649919
aF-9.601638940166769
aF-6.1676517356816225
aF-7.203743667368399
aF-9.601638940166769
aF-9.601638940166769
aF-9.601638940166769
aF-3.658839565040068
aF-9.601638940166769
aF-6.1676517356816225
aF-9.601638940166769
aF-9.601638940166769
aF-4.726441616965618
aF-5.888066873462462
aF-5.338959063125454
aF-9.601638940166769
aF-7.203743667368399
aF-9.601638940166769
aF-9.601638940166769
aF-3.7995205647897063
aF-7.203743667368399
aF-9.601638940166769
aF-9.601638940166769
aF-5.2071897854943305
aF-9.601638940166769
aF-9.601638940166769
aF-6.1676517356816225
aF-9.601638940166769
aF-7.203743667368399
aF-6.557116502443346
aF-4.349365512120139
aF-6.1676517356816225
aF-9.601638940166769
aF-6.557116502443346
aF-9.601638940166769
aF-9.601638940166769
aF-9.601638940166769
aF-9.601638940166769
aF-9.601638940166769
aF-6.557116502443346
aF-6.557116502443346
aF-6.557116502443346
aF-7.203743667368399
aF-9.601638940166769
aF-9.601638940166769
aF-6.557116502443346
aF-6.557116502443346
aF-4.726441616965618
aF-5.490765075993458
aF-6.557116502443346
aF-9.601638940166769
aF-9.601638940166769
aF-9.601638940166769
aF-7.203743667368399
aF-6.1676517356816225
aF-6.557116502443346
aF-4.98651842332551
aF-7.203743667368399
aF-5.6698133074424435
aF-9.601638940166769
aF-9.601638940166769
aF-4.805848394570028
aF-9.601638940166769
aF-7.203743667368399
aF-5.6698133074424435
aF-7.203743667368399
aF-9.601638940166769
aF-9.601638940166769
aF-9.601638940166769
aF-5.2071897854943305
aF-7.203743667368399
aF-9.601638940166769
aF-9.601638940166769
aF-6.1676517356816225
aF-6.1676517356816225
aF-9.601638940166769
aF-7.203743667368399
aF-7.203743667368399
aF-9.601638940166769
aF-9.601638940166769
aF-9.601638940166769
aF-5.888066873462462
aF-7.203743667368399
aF-7.203743667368399
aF-9.601638940166769
aF-9.601638940166769
aF-9.601638940166769
aF-6.557116502443346
aF-9.601638940166769
aF-9.601638940166769
aF-6.557116502443346
aF-6.1676517356816225
aF-4.892108738854435
aF-6.1676517356816225
aF-9.601638940166769
aF-5.6698133074424435
aF-6.557116502443346
aF-9.601638940166769
aF-9.601638940166769
aF-9.601638940166769
aF-9.601638940166769
aF-9.601638940166769
aF-9.601638940166769
aF-4.349365512120139
aF-9.601638940166769
aF-5.888066873462462
aF-7.203743667368399
aF-9.601638940166769
aF-7.203743667368399
aF-5.2071897854943305
aF-9.601638940166769
aF-6.1676517356816225
aF-7.203743667368399
aF-9.601638940166769
aF-5.338959063125454
aF-6.557116502443346
aF-9.601638940166769
aF-9.601638940166769
aF-6.557116502443346
aF-9.601638940166769
aF-5.338959063125454
aF-9.601638940166769
aF-9.601638940166769
aF-9.601638940166769
aF-9.601638940166769
aF-7.203743667368399
aF-9.601638940166769
aF-9.601638940166769
aF-9.601638940166769
aF-9.601638940166769
aF-9.601638940166769
aF-4.037118532844076
aF-4.5843591033518445
aF-4.652879049788601
aF-6.1676517356816225
aF-9.601638940166769
aF-5.090779433649919
aF-9.601638940166769
aF-9.601638940166769
aF-4.98651842332551
aF-4.5843591033518445
aF-7.203743667368399
aF-5.338959063125454
aF-6.557116502443346
aF-6.557116502443346
aF-4.98651842332551
aF-9.601638940166769
aF-7.203743667368399
aF-7.203743667368399
aF-9.601638940166769
aF-9.601638940166769
aF-9.601638940166769
aF-7.203743667368399
aF-9.601638940166769
aF-9.601638940166769
aF-9.601638940166769
aF-5.6698133074424435
aF-9.601638940166769
aF-9.601638940166769
aF-7.203743667368399
aF-6.557116502443346
aF-5.2071897854943305
aF-9.601638940166769
aF-7.203743667368399
aF-5.490765075993458
aF-4.520234575182306
aF-6.557116502443346
aF-5.888066873462462
aF-6.1676517356816225
aF-9.601638940166769
aF-9.601638940166769
aF-7.203743667368399
aF-4.98651842332551
aF-5.6698133074424435
aF-5.338959063125454
aF-9.601638940166769
aF-3.3458888984134023
aF-4.403141908900944
aF-4.459975383664109
aF-7.203743667368399
aF-7.203743667368399
aF-9.601638940166769
aF-9.601638940166769
aF-9.601638940166769
aF-6.557116502443346
aF-9.601638940166769
aF-9.601638940166769
aF-9.601638940166769
aF-6.1676517356816225
aF-5.2071897854943305
aF-4.349365512120139
aF-9.601638940166769
aF-7.203743667368399
aF-9.601638940166769
aF-4.520234575182306
aF-5.090779433649919
aF-7.203743667368399
aF-9.601638940166769
aF-9.601638940166769
aF-5.6698133074424435
aF-3.271918034644073
aF-4.5843591033518445
aF-6.557116502443346
aF-5.090779433649919
aF-4.652879049788601
aF-9.601638940166769
aF-4.98651842332551
aF-4.403141908900944
aF-6.557116502443346
aF-9.601638940166769
aF-7.203743667368399
aF-7.203743667368399
aF-3.685436877559334
aF-6.557116502443346
aF-5.2071897854943305
aF-5.6698133074424435
aF-4.403141908900944
aF-6.557116502443346
aF-9.601638940166769
aF-9.601638940166769
aF-9.601638940166769
aF-6.1676517356816225
aF-4.349365512120139
aF-6.557116502443346
aF-4.652879049788601
aF-7.203743667368399
aF-9.601638940166769
aF-7.203743667368399
aF-2.477966154962162
aF-5.6698133074424435
aF-4.076186001034985
aF-5.6698133074424435
aF-9.601638940166769
aF-9.601638940166769
aF-6.557116502443346
aF-9.601638940166769
aF-6.557116502443346
aF-7.203743667368399
aF-9.601638940166769
aF-5.888066873462462
aF-7.203743667368399
aF-9.601638940166769
aF-4.520234575182306
aF-7.203743667368399
aF-6.557116502443346
aF-7.203743667368399
aF-5.888066873462462
aF-9.601638940166769
aF-5.2071897854943305
aF-5.338959063125454
aF-4.892108738854435
aF-9.601638940166769
aF-9.601638940166769
aF-9.601638940166769
aF-9.601638940166769
aF-9.601638940166769
aF-7.203743667368399
aF-9.601638940166769
aF-9.601638940166769
aF-9.601638940166769
aF-7.203743667368399
aF-9.601638940166769
aF-9.601638940166769
aF-9.601638940166769
aF-9.601638940166769
aF-7.203743667368399
aF-9.601638940166769
aF-7.203743667368399
aF-9.601638940166769
aF-5.888066873462462
aF-9.601638940166769
aF-6.557116502443346
aF-4.5843591033518445
aF-5.6698133074424435
aF-6.1676517356816225
aF-4.249780806690702
aF-9.601638940166769
aF-3.107885100315083
aF-5.490765075993458
aF-3.2542497305107587
aF-4.249780806690702
aF-6.557116502443346
aF-4.98651842332551
aF-4.520234575182306
aF-6.1676517356816225
aF-4.5843591033518445
aF-9.601638940166769
aF-5.6698133074424435
aF-7.203743667368399
aF-9.601638940166769
aF-9.601638940166769
aF-4.5843591033518445
aF-4.652879049788601
aF-9.601638940166769
aF-9.601638940166769
aF-4.726441616965618
aF-3.9283156729952764
aF-4.98651842332551
aF-9.601638940166769
aF-9.601638940166769
aF-7.203743667368399
aF-6.557116502443346
aF-9.601638940166769
aF-9.601638940166769
aF-9.601638940166769
aF-9.601638940166769
aF-5.888066873462462
aF-4.403141908900944
aF-5.2071897854943305
aF-9.601638940166769
aF-6.557116502443346
aF-9.601638940166769
aF-6.1676517356816225
aF-9.601638940166769
aF-9.601638940166769
aF-9.601638940166769
aF-5.090779433649919
aF-7.203743667368399
aF-4.459975383664109
aF-4.652879049788601
aF-5.6698133074424435
aF-4.459975383664109
aF-6.557116502443346
aF-9.601638940166769
aF-5.338959063125454
aF-3.4682408971701206
aF-9.601638940166769
aF-9.601638940166769
aF-9.601638940166769
aF-9.601638940166769
aF-4.203476238649016
aF-6.1676517356816225
aF-9.601638940166769
aF-2.9033708860513565
aF-7.203743667368399
aF-7.203743667368399
aF-6.557116502443346
aF-9.601638940166769
aF-7.203743667368399
aF-7.203743667368399
aF-5.888066873462462
aF-9.601638940166769
aF-9.601638940166769
aF-9.601638940166769
aF-7.203743667368399
aF-4.805848394570028
aF-6.557116502443346
aF-5.2071897854943305
aF-5.338959063125454
aF-7.203743667368399
aF-3.8945286754178934
aF-5.490765075993458
aF-6.557116502443346
aF-4.805848394570028
aF-5.888066873462462
aF-9.601638940166769
aF-9.601638940166769
aF-9.601638940166769
aF-9.601638940166769
aF-9.601638940166769
aF-9.601638940166769
aF-9.601638940166769
aF-7.203743667368399
aF-7.203743667368399
aF-5.6698133074424435
aF-3.8301978170367534
aF-9.601638940166769
aF-5.6698133074424435
aF-9.601638940166769
aF-5.888066873462462
aF-7.203743667368399
aF-7.203743667368399
aF-5.6698133074424435
aF-9.601638940166769
aF-9.601638940166769
aF-9.601638940166769
aF-9.601638940166769
aF-9.601638940166769
aF-9.601638940166769
aF-5.338959063125454
aF-7.203743667368399
aF-5.6698133074424435
aF-9.601638940166769
aF-6.557116502443346
aF-2.765379662889702
aF-3.2542497305107587
aF-3.4901716006640906
aF-9.601638940166769
aF-9.601638940166769
aF-6.1676517356816225
aF-9.601638940166769
aF-5.490765075993458
aF-7.203743667368399
aF-5.888066873462462
aF-9.601638940166769
aF-7.203743667368399
aF-9.601638940166769
aF-7.203743667368399
aF-9.601638940166769
aF-6.557116502443346
aF-9.601638940166769
aF-9.601638940166769
aF-9.601638940166769
aF-7.203743667368399
aF-5.888066873462462
aF-6.557116502443346
aF-9.601638940166769
aF-7.203743667368399
aF-7.203743667368399
aF-7.203743667368399
aF-9.601638940166769
aF-6.557116502443346
aF-9.601638940166769
aF-3.9632842708330234
aF-6.1676517356816225
aF-9.601638940166769
aF-6.1676517356816225
aF-9.601638940166769
aF-7.203743667368399
aF-5.6698133074424435
aF-6.557116502443346
aF-9.601638940166769
aF-9.601638940166769
aF-9.601638940166769
aF-9.601638940166769
aF-5.6698133074424435
aF-9.601638940166769
aF-9.601638940166769
aF-4.726441616965618
aF-3.512594064719923
aF-9.601638940166769
aF-9.601638940166769
aF-6.557116502443346
aF-9.601638940166769
aF-5.6698133074424435
aF-3.0072254804169907
aF-9.601638940166769
aF-3.861846027987535
aF-4.459975383664109
aF-7.203743667368399
aF-4.459975383664109
aF-9.601638940166769
aF-9.601638940166769
aF-5.888066873462462
aF-9.601638940166769
aF-7.203743667368399
aF-9.601638940166769
aF-9.601638940166769
aF-4.805848394570028
aF-6.557116502443346
aF-5.2071897854943305
aF-7.203743667368399
aF-9.601638940166769
aF-7.203743667368399
aF-9.601638940166769
aF-5.090779433649919
aF-6.557116502443346
aF-7.203743667368399
aF-6.557116502443346
aF-7.203743667368399
aF-9.601638940166769
aF-7.203743667368399
aF-4.805848394570028
aF-5.888066873462462
aF-4.116842006676114
aF-5.6698133074424435
aF-7.203743667368399
aF-7.203743667368399
aF-9.601638940166769
aF-4.652879049788601
aF-6.1676517356816225
aF-5.090779433649919
aF-9.601638940166769
aF-4.1592212296449755
aF-9.601638940166769
aF-7.203743667368399
aF-9.601638940166769
aF-9.601638940166769
aF-7.203743667368399
aF-9.601638940166769
aF-6.557116502443346
aF-5.888066873462462
aF-9.601638940166769
aF-9.601638940166769
aF-9.601638940166769
aF-9.601638940166769
aF-6.1676517356816225
aF-6.557116502443346
aF-5.888066873462462
aF-9.601638940166769
aF-7.203743667368399
aF-6.557116502443346
aF-6.1676517356816225
aF-9.601638940166769
aF-9.601638940166769
aF-9.601638940166769
aF-9.601638940166769
aF-7.203743667368399
aF-9.601638940166769
aF-9.601638940166769
aF-3.685436877559334
aF-4.459975383664109
aF-5.888066873462462
aF-9.601638940166769
aF-7.203743667368399
aF-6.557116502443346
aF-7.203743667368399
aF-9.601638940166769
aF-9.601638940166769
aF-4.98651842332551
aF-6.557116502443346
aF-9.601638940166769
aF-2.787096042906811
aF-9.601638940166769
aF-6.557116502443346
aF-9.601638940166769
aF-7.203743667368399
aF-9.601638940166769
aF-4.98651842332551
aF-7.203743667368399
aF-6.1676517356816225
aF-9.601638940166769
aF-6.557116502443346
aF-4.805848394570028
aF-5.888066873462462
aF-6.557116502443346
aF-9.601638940166769
aF-5.6698133074424435
aF-7.203743667368399
aF-9.601638940166769
aF-9.601638940166769
aF-3.9283156729952764
aF-6.557116502443346
aF-9.601638940166769
aF-7.203743667368399
aF-9.601638940166769
aF-6.1676517356816225
aF-7.203743667368399
aF-6.1676517356816225
aF-7.203743667368399
aF-9.601638940166769
aF-4.805848394570028
aF-4.805848394570028
aF-5.6698133074424435
aF-7.203743667368399
aF-9.601638940166769
aF-9.601638940166769
aF-7.203743667368399
aF-9.601638940166769
aF-9.601638940166769
aF-9.601638940166769
aF-9.601638940166769
aF-9.601638940166769
aF-5.6698133074424435
aF-4.805848394570028
aF-9.601638940166769
aF-4.403141908900944
aF-4.076186001034985
aF-6.557116502443346
aF-5.6698133074424435
aF-5.888066873462462
aF-7.203743667368399
aF-9.601638940166769
aF-9.601638940166769
aF-7.203743667368399
aF-9.601638940166769
aF-5.6698133074424435
aF-9.601638940166769
aF-9.601638940166769
aF-7.203743667368399
aF-9.601638940166769
aF-9.601638940166769
aF-7.203743667368399
aF-6.1676517356816225
aF-6.557116502443346
aF-4.349365512120139
aF-6.1676517356816225
aF-7.203743667368399
aF-5.490765075993458
aF-5.490765075993458
aF-9.601638940166769
aF-7.203743667368399
aF-9.601638940166769
aF-6.557116502443346
aF-7.203743667368399
aF-9.601638940166769
aF-6.557116502443346
aF-3.1865419809951736
aF-9.601638940166769
aF-5.090779433649919
aF-9.601638940166769
aF-6.1676517356816225
aF-9.601638940166769
aF-9.601638940166769
aF-5.6698133074424435
aF-9.601638940166769
aF-9.601638940166769
aF-6.557116502443346
aF-6.557116502443346
aF-3.7995205647897063
aF-5.490765075993458
aF-7.203743667368399
aF-9.601638940166769
aF-9.601638940166769
aF-9.601638940166769
aF-5.6698133074424435
aF-5.888066873462462
aF-6.1676517356816225
aF-9.601638940166769
aF-9.601638940166769
aF-9.601638940166769
aF-7.203743667368399
aF-7.203743667368399
aF-7.203743667368399
aF-5.338959063125454
aF-9.601638940166769
aF-3.7995205647897063
aF-4.349365512120139
aF-3.7697564628832523
aF-9.601638940166769
aF-9.601638940166769
aF-7.203743667368399
aF-9.601638940166769
aF-7.203743667368399
aF-9.601638940166769
aF-4.98651842332551
aF-9.601638940166769
aF-7.203743667368399
aF-5.888066873462462
aF-3.8301978170367534
aF-6.557116502443346
aF-6.557116502443346
aF-9.601638940166769
aF-9.601638940166769
aF-9.601638940166769
aF-9.601638940166769
aF-9.601638940166769
aF-5.888066873462462
aF-4.726441616965618
aF-5.888066873462462
aF-9.601638940166769
aF-9.601638940166769
aF-9.601638940166769
aF-9.601638940166769
aF-9.601638940166769
aF-9.601638940166769
aF-9.601638940166769
aF-5.090779433649919
aF-9.601638940166769
aF-5.888066873462462
aF-7.203743667368399
aF-9.601638940166769
aF-9.601638940166769
aF-4.652879049788601
aF-9.601638940166769
aF-9.601638940166769
aF-3.8945286754178934
aF-5.090779433649919
aF-7.203743667368399
aF-9.601638940166769
aF-5.338959063125454
aF-5.6698133074424435
aF-9.601638940166769
aF-9.601638940166769
aF-9.601638940166769
aF-5.090779433649919
aF-9.601638940166769
aF-4.892108738854435
aF-7.203743667368399
aF-9.601638940166769
aF-9.601638940166769
aF-9.601638940166769
aF-9.601638940166769
aF-9.601638940166769
aF-9.601638940166769
aF-9.601638940166769
aF-9.601638940166769
aF-7.203743667368399
aF-4.249780806690702
aF-9.601638940166769
aF-9.601638940166769
aF-7.203743667368399
aF-9.601638940166769
aF-9.601638940166769
aF-9.601638940166769
aF-6.557116502443346
aF-9.601638940166769
aF-9.601638940166769
aF-7.203743667368399
aF-5.6698133074424435
aF-6.557116502443346
aF-9.601638940166769
aF-5.6698133074424435
aF-7.203743667368399
aF-7.203743667368399
aF-6.557116502443346
aF-5.888066873462462
aF-5.490765075993458
aF-6.557116502443346
aF-9.601638940166769
aF-9.601638940166769
aF-9.601638940166769
aF-5.090779433649919
aF-9.601638940166769
aF-9.601638940166769
aF-7.203743667368399
aF-9.601638940166769
aF-9.601638940166769
aF-9.601638940166769
aF-7.203743667368399
aF-9.601638940166769
aF-9.601638940166769
aF-9.601638940166769
aF-9.601638940166769
aF-9.601638940166769
aF-9.601638940166769
aF-9.601638940166769
aF-5.6698133074424435
aF-9.601638940166769
aF-6.1676517356816225
aF-9.601638940166769
aF-9.601638940166769
aF-6.557116502443346
aF-7.203743667368399
aF-9.601638940166769
aF-4.652879049788601
aF-6.1676517356816225
aF-4.298334032107693
aF-5.338959063125454
aF-6.557116502443346
aF-7.203743667368399
aF-6.1676517356816225
aF-9.601638940166769
aF-5.6698133074424435
aF-9.601638940166769
aF-9.601638940166769
aF-7.203743667368399
aF-9.601638940166769
aF-6.1676517356816225
aF-5.888066873462462
aF-9.601638940166769
aF-5.888066873462462
aF-9.601638940166769
aF-4.349365512120139
aF-2.1804614115713754
aF-9.601638940166769
aF-9.601638940166769
aF-7.203743667368399
aF-9.601638940166769
aF-9.601638940166769
aF-9.601638940166769
aF-6.557116502443346
aF-9.601638940166769
aF-4.98651842332551
aF-6.1676517356816225
aF-9.601638940166769
aF-9.601638940166769
aF-9.601638940166769
aF-9.601638940166769
aF-7.203743667368399
aF-7.203743667368399
aF-7.203743667368399
aF-6.1676517356816225
aF-9.601638940166769
aF-9.601638940166769
aF-6.557116502443346
aF-7.203743667368399
aF-9.601638940166769
aF-9.601638940166769
aF-7.203743667368399
aF-7.203743667368399
aF-9.601638940166769
aF-9.601638940166769
aF-4.298334032107693
aF-9.601638940166769
aF-9.601638940166769
aF-9.601638940166769
aF-9.601638940166769
aF-9.601638940166769
aF-6.557116502443346
aF-9.601638940166769
aF-4.249780806690702
aF-6.557116502443346
aF-7.203743667368399
aF-7.203743667368399
aF-6.1676517356816225
aF-6.557116502443346
aF-9.601638940166769
aF-3.999520119287068
aF-9.601638940166769
aF-9.601638940166769
aF-9.601638940166769
aF-9.601638940166769
aF-9.601638940166769
aF-6.1676517356816225
aF-7.203743667368399
aF-6.557116502443346
aF-9.601638940166769
aF-7.203743667368399
aF-4.520234575182306
aF-9.601638940166769
aF-7.203743667368399
aF-5.490765075993458
aF-7.203743667368399
aF-9.601638940166769
aF-9.601638940166769
aF-9.601638940166769
aF-9.601638940166769
aF-7.203743667368399
aF-9.601638940166769
aF-9.601638940166769
aF-7.203743667368399
aF-7.203743667368399
aF-9.601638940166769
aF-7.203743667368399
aF-7.203743667368399
aF-7.203743667368399
aF-9.601638940166769
aF-5.888066873462462
aF-4.652879049788601
aF-6.1676517356816225
aF-7.203743667368399
aF-6.557116502443346
aF-6.557116502443346
aF-9.601638940166769
aF-7.203743667368399
aF-7.203743667368399
aF-9.601638940166769
aF-9.601638940166769
aF-9.601638940166769
aF-9.601638940166769
aF-6.1676517356816225
aF-9.601638940166769
aF-6.1676517356816225
aF-7.203743667368399
aF-6.1676517356816225
aF-9.601638940166769
aF-9.601638940166769
aF-9.601638940166769
aF-9.601638940166769
aF-9.601638940166769
aF-7.203743667368399
aF-5.2071897854943305
aF-9.601638940166769
aF-7.203743667368399
aF-6.557116502443346
aF-7.203743667368399
aF-7.203743667368399
aF-9.601638940166769
aF-9.601638940166769
aF-5.490765075993458
aF-9.601638940166769
aF-9.601638940166769
aF-9.601638940166769
aF-5.338959063125454
aF-5.6698133074424435
aF-9.601638940166769
aF-9.601638940166769
aF-5.338959063125454
aF-5.090779433649919
aF-9.601638940166769
aF-9.601638940166769
aF-9.601638940166769
aF-9.601638940166769
aF-9.601638940166769
aF-5.6698133074424435
aF-7.203743667368399
aF-9.601638940166769
aF-9.601638940166769
aF-9.601638940166769
aF-9.601638940166769
aF-9.601638940166769
aF-9.601638940166769
aF-9.601638940166769
aF-4.805848394570028
aF-5.490765075993458
aF-9.601638940166769
aF-7.203743667368399
aF-7.203743667368399
aF-4.805848394570028
aF-9.601638940166769
aF-5.6698133074424435
aF-9.601638940166769
aF-9.601638940166769
aF-5.6698133074424435
aF-6.557116502443346
aF-7.203743667368399
aF-7.203743667368399
aF-7.203743667368399
aF-7.203743667368399
aF-6.1676517356816225
aF-9.601638940166769
aF-5.6698133074424435
aF-9.601638940166769
aF-9.601638940166769
aF-9.601638940166769
aF-9.601638940166769
aF-7.203743667368399
aF-9.601638940166769
aF-9.601638940166769
aF-9.601638940166769
aF-6.557116502443346
aF-9.601638940166769
aF-9.601638940166769
aF-9.601638940166769
aF-9.601638940166769
aF-9.601638940166769
aF-7.203743667368399
aF-9.601638940166769
aF-9.601638940166769
aF-9.601638940166769
aF-9.601638940166769
aF-4.98651842332551
aF-9.601638940166769
aF-9.601638940166769
aF-9.601638940166769
aF-9.601638940166769
aF-7.203743667368399
aF-9.601638940166769
aF-9.601638940166769
aF-5.338959063125454
aF-4.726441616965618
aF-9.601638940166769
aF-9.601638940166769
aF-9.601638940166769
aF-7.203743667368399
aF-3.9632842708330234
aF-7.203743667368399
aF-4.98651842332551
aF-9.601638940166769
aF-5.490765075993458
aF-9.601638940166769
aF-6.557116502443346
aF-6.557116502443346
aF-9.601638940166769
aF-5.888066873462462
aF-5.490765075993458
aF-4.805848394570028
aF-9.601638940166769
aF-9.601638940166769
aF-9.601638940166769
aF-4.98651842332551
aF-6.557116502443346
aF-9.601638940166769
aF-9.601638940166769
aF-9.601638940166769
aF-7.203743667368399
aF-9.601638940166769
aF-9.601638940166769
aF-9.601638940166769
aF-5.888066873462462
aF-7.203743667368399
aF-9.601638940166769
aF-9.601638940166769
aF-9.601638940166769
aF-9.601638940166769
aF-9.601638940166769
aF-9.601638940166769
aF-5.6698133074424435
aF-9.601638940166769
aF-7.203743667368399
aF-9.601638940166769
aF-9.601638940166769
aF-9.601638940166769
aF-9.601638940166769
aF-5.2071897854943305
aF-4.892108738854435
aF-7.203743667368399
aF-7.203743667368399
aF-9.601638940166769
aF-7.203743667368399
aF-5.338959063125454
aF-9.601638940166769
aF-9.601638940166769
aF-7.203743667368399
aF-6.1676517356816225
aF-9.601638940166769
aF-9.601638940166769
aF-5.338959063125454
aF-9.601638940166769
aF-3.9283156729952764
aF-9.601638940166769
aF-9.601638940166769
aF-9.601638940166769
aF-9.601638940166769
aF-6.1676517356816225
aF-9.601638940166769
aF-9.601638940166769
aF-7.203743667368399
aF-7.203743667368399
aF-7.203743667368399
aF-9.601638940166769
aF-3.658839565040068
aF-5.888066873462462
aF-9.601638940166769
aF-5.888066873462462
aF-7.203743667368399
aF-9.601638940166769
aF-9.601638940166769
aF-9.601638940166769
aF-9.601638940166769
aF-5.338959063125454
aF-6.1676517356816225
aF-6.557116502443346
aF-5.338959063125454
aF-9.601638940166769
aF-9.601638940166769
aF-6.1676517356816225
aF-9.601638940166769
aF-5.6698133074424435
aF-9.601638940166769
aF-5.888066873462462
aF-5.888066873462462
aF-9.601638940166769
aF-9.601638940166769
aF-5.6698133074424435
aF-7.203743667368399
aF-9.601638940166769
aF-7.203743667368399
aF-6.1676517356816225
aF-7.203743667368399
aF-7.203743667368399
aF-9.601638940166769
aF-9.601638940166769
aF-9.601638940166769
aF-9.601638940166769
aF-9.601638940166769
aF-4.805848394570028
aF-7.203743667368399
aF-9.601638940166769
aF-9.601638940166769
aF-5.338959063125454
aF-4.520234575182306
aF-4.1592212296449755
aF-7.203743667368399
aF-5.6698133074424435
aF-6.557116502443346
aF-7.203743667368399
aF-2.891115830714341
aF-2.967005582305083
aF-6.557116502443346
aF-9.601638940166769
aF-4.98651842332551
aF-9.601638940166769
aF-6.557116502443346
aF-9.601638940166769
aF-3.5590061064843876
aF-6.557116502443346
aF-9.601638940166769
aF-6.557116502443346
aF-7.203743667368399
aF-7.203743667368399
aF-4.298334032107693
aF-7.203743667368399
aF-9.601638940166769
aF-5.6698133074424435
aF-9.601638940166769
aF-6.1676517356816225
aF-5.888066873462462
aF-3.8945286754178934
aF-5.888066873462462
aF-3.8945286754178934
aF-1.3988825585111322
aF-9.601638940166769
aF-9.601638940166769
aF-9.601638940166769
aF-9.601638940166769
aF-9.601638940166769
aF-7.203743667368399
aF-9.601638940166769
aF-9.601638940166769
aF-9.601638940166769
aF-6.1676517356816225
aF-5.6698133074424435
aF-5.888066873462462
aF-9.601638940166769
aF-9.601638940166769
aF-9.601638940166769
aF-9.601638940166769
aF-9.601638940166769
aF-9.601638940166769
aF-7.203743667368399
aF-9.601638940166769
aF-9.601638940166769
aF-9.601638940166769
aF-7.203743667368399
aF-6.557116502443346
aF-5.090779433649919
aF-5.338959063125454
aF-6.557116502443346
aF-5.888066873462462
aF-6.1676517356816225
aF-5.888066873462462
aF-9.601638940166769
aF-9.601638940166769
aF-5.490765075993458
aF-7.203743667368399
aF-4.98651842332551
aF-6.557116502443346
aF-7.203743667368399
aF-9.601638940166769
aF-3.446780846150351
aF-4.459975383664109
aF-9.601638940166769
aF-4.1592212296449755
aF-6.557116502443346
aF-6.1676517356816225
aF-7.203743667368399
aF-9.601638940166769
aF-7.203743667368399
aF-3.7408527167009034
aF-6.1676517356816225
aF-9.601638940166769
aF-9.601638940166769
aF-4.98651842332551
aF-6.557116502443346
aF-4.116842006676114
aF-4.459975383664109
aF-4.652879049788601
aF-4.037118532844076
aF-5.888066873462462
aF-4.349365512120139
aF-9.601638940166769
aF-9.601638940166769
aF-9.601638940166769
aF-7.203743667368399
aF-9.601638940166769
aF-5.888066873462462
aF-6.557116502443346
aF-5.888066873462462
aF-7.203743667368399
aF-4.349365512120139
aF-2.7546958005813895
aF-3.5830457256705346
aF-5.2071897854943305
aF-9.601638940166769
aF-9.601638940166769
aF-4.652879049788601
aF-6.1676517356816225
aF-4.249780806690702
aF-1.6710730859328042
aF-7.203743667368399
aF-3.6076775128602
aF-2.7761789039114624
aF-9.601638940166769
aF-5.338959063125454
aF-4.98651842332551
aF-9.601638940166769
aF-9.601638940166769
aF-6.1676517356816225
aF-9.601638940166769
aF-4.805848394570028
aF-5.490765075993458
aF-9.601638940166769
aF-2.477966154962162
aF-9.601638940166769
aF-9.601638940166769
aF-2.2679625445090856
aF-2.7546958005813895
aF-9.601638940166769
aF-7.203743667368399
aF-4.98651842332551
aF-9.601638940166769
aF-9.601638940166769
aF-4.349365512120139
aF-4.203476238649016
aF-5.490765075993458
aF-5.6698133074424435
aF-4.403141908900944
aF-7.203743667368399
aF-7.203743667368399
aF-9.601638940166769
aF-9.601638940166769
aF-6.557116502443346
aF-5.6698133074424435
aF-7.203743667368399
aF-7.203743667368399
aF-4.726441616965618
aF-9.601638940166769
aF-6.1676517356816225
aF-9.601638940166769
aF-5.490765075993458
aF-9.601638940166769
aF-9.601638940166769
aF-9.601638940166769
aF-7.203743667368399
aF-6.557116502443346
aF-9.601638940166769
aF-9.601638940166769
aF-9.601638940166769
aF-9.601638940166769
aF-2.400468056885091
aF-9.601638940166769
aF-6.557116502443346
aF-6.1676517356816225
aF-4.98651842332551
aF-9.601638940166769
aF-7.203743667368399
aF-9.601638940166769
aF-9.601638940166769
aF-9.601638940166769
aF-6.557116502443346
aF-9.601638940166769
aF-7.203743667368399
aF-7.203743667368399
aF-7.203743667368399
aF-5.6698133074424435
aF-7.203743667368399
aF-5.6698133074424435
a.