(lp0
F-9.601638940166769
aF-9.601638940166769
aF-7.203743667368399
aF-7.203743667368399
aF-7.203743667368399
aF-9.601638940166769
aF-9.601638940166769
aF-9.601638940166769
aF-9.601638940166769
aF-9.601638940166769
aF-9.601638940166769
aF-9.601638940166769
aF-5.6698133074424435
aF-6.1676517356816225
aF-9.601638940166769
aF-5.6698133074424435
aF-5.888066873462462
aF-6.557116502443346
aF-9.601638940166769
aF-5.090779433649919
aF-9.601638940166769
aF-9.601638940166769
aF-4.892108738854435
aF-6.1676517356816225
aF-9.601638940166769
aF-9.601638940166769
aF-5.338959063125454
aF-6.557116502443346
aF-5.2071897854943305
aF-5.888066873462462
aF-7.203743667368399
aF-5.090779433649919
aF-9.601638940166769
aF-9.601638940166769
aF-5.2071897854943305
aF-9.601638940166769
aF-5.2071897854943305
aF-6.1676517356816225
aF-5.2071897854943305
aF-4.520234575182306
aF-9.601638940166769
aF-9.601638940166769
aF-5.490765075993458
aF-9.601638940166769
aF-9.601638940166769
aF-5.338959063125454
aF-4.403141908900944
aF-4.892108738854435
aF-6.1676517356816225
aF-7.203743667368399
aF-4.5843591033518445
aF-5.090779433649919
aF-9.601638940166769
aF-6.557116502443346
aF-6.1676517356816225
aF-6.557116502443346
aF-5.888066873462462
aF-7.203743667368399
aF-9.601638940166769
aF-9.601638940166769
aF-6.1676517356816225
aF-9.601638940166769
aF-7.203743667368399
aF-9.601638940166769
aF-9.601638940166769
aF-9.601638940166769
aF-7.203743667368399
aF-4.298334032107693
aF-5.490765075993458
aF-9.601638940166769
aF-9.601638940166769
aF-9.601638940166769
aF-9.601638940166769
aF-9.601638940166769
aF-7.203743667368399
aF-9.601638940166769
aF-7.203743667368399
aF-7.203743667368399
aF-9.601638940166769
aF-9.601638940166769
aF-7.203743667368399
aF-9.601638940166769
aF-6.1676517356816225
aF-6.1676517356816225
aF-9.601638940166769
aF-7.203743667368399
aF-4.652879049788601
aF-9.601638940166769
aF-4.892108738854435
aF-4.98651842332551
aF-5.6698133074424435
aF-4.805848394570028
aF-7.203743667368399
aF-7.203743667368399
aF-9.601638940166769
aF-9.601638940166769
aF-9.601638940166769
aF-9.601638940166769
aF-9.601638940166769
aF-6.557116502443346
aF-5.338959063125454
aF-6.557116502443346
aF-6.557116502443346
aF-9.601638940166769
aF-9.601638940166769
aF-9.601638940166769
aF-9.601638940166769
aF-5.6698133074424435
aF-9.601638940166769
aF-9.601638940166769
aF-9.601638940166769
aF-9.601638940166769
aF-9.601638940166769
aF-9.601638940166769
aF-9.601638940166769
aF-5.090779433649919
aF-4.520234575182306
aF-9.601638940166769
aF-9.601638940166769
aF-5.888066873462462
aF-9.601638940166769
aF-5.338959063125454
aF-6.1676517356816225
aF-6.1676517356816225
aF-6.557116502443346
aF-9.601638940166769
aF-5.888066873462462
aF-7.203743667368399
aF-7.203743667368399
aF-7.203743667368399
aF-5.338959063125454
aF-9.601638940166769
aF-7.203743667368399
aF-4.249780806690702
aF-5.6698133074424435
aF-5.6698133074424435
aF-9.601638940166769
aF-5.888066873462462
aF-7.203743667368399
aF-9.601638940166769
aF-6.1676517356816225
aF-9.601638940166769
aF-9.601638940166769
aF-9.601638940166769
aF-5.490765075993458
aF-6.557116502443346
aF-9.601638940166769
aF-7.203743667368399
aF-9.601638940166769
aF-4.1592212296449755
aF-7.203743667368399
aF-7.203743667368399
aF-7.203743667368399
aF-5.888066873462462
aF-5.090779433649919
aF-9.601638940166769
aF-9.601638940166769
aF-9.601638940166769
aF-9.601638940166769
aF-9.601638940166769
aF-7.203743667368399
aF-7.203743667368399
aF-9.601638940166769
aF-9.601638940166769
aF-7.203743667368399
aF-9.601638940166769
aF-7.203743667368399
aF-9.601638940166769
aF-7.203743667368399
aF-5.090779433649919
aF-9.601638940166769
aF-7.203743667368399
aF-9.601638940166769
aF-9.601638940166769
aF-7.203743667368399
aF-9.601638940166769
aF-6.557116502443346
aF-5.888066873462462
aF-9.601638940166769
aF-7.203743667368399
aF-9.601638940166769
aF-5.888066873462462
aF-6.557116502443346
aF-5.888066873462462
aF-6.1676517356816225
aF-9.601638940166769
aF-7.203743667368399
aF-9.601638940166769
aF-9.601638940166769
aF-9.601638940166769
aF-9.601638940166769
aF-5.338959063125454
aF-7.203743667368399
aF-6.1676517356816225
aF-7.203743667368399
aF-9.601638940166769
aF-9.601638940166769
aF-6.1676517356816225
aF-4.98651842332551
aF-6.1676517356816225
aF-6.1676517356816225
aF-2.941063790327083
aF-4.652879049788601
aF-5.888066873462462
aF-5.090779433649919
aF-4.520234575182306
aF-7.203743667368399
aF-6.557116502443346
aF-6.1676517356816225
aF-7.203743667368399
aF-9.601638940166769
aF-9.601638940166769
aF-9.601638940166769
aF-9.601638940166769
aF-9.601638940166769
aF-6.1676517356816225
aF-9.601638940166769
aF-9.601638940166769
aF-9.601638940166769
aF-7.203743667368399
aF-7.203743667368399
aF-5.888066873462462
aF-7.203743667368399
aF-9.601638940166769
aF-5.888066873462462
aF-3.5590061064843876
aF-7.203743667368399
aF-9.601638940166769
aF-7.203743667368399
aF-9.601638940166769
aF-6.557116502443346
aF-7.203743667368399
aF-4.892108738854435
aF-7.203743667368399
aF-3.8945286754178934
aF-7.203743667368399
aF-9.601638940166769
aF-3.999520119287068
aF-5.6698133074424435
aF-5.888066873462462
aF-9.601638940166769
aF-7.203743667368399
aF-6.557116502443346
aF-7.203743667368399
aF-9.601638940166769
aF-5.490765075993458
aF-3.5830457256705346
aF-9.601638940166769
aF-9.601638940166769
aF-9.601638940166769
aF-9.601638940166769
aF-9.601638940166769
aF-6.1676517356816225
aF-7.203743667368399
aF-9.601638940166769
aF-7.203743667368399
aF-9.601638940166769
aF-9.601638940166769
aF-9.601638940166769
aF-9.601638940166769
aF-9.601638940166769
aF-6.1676517356816225
aF-9.601638940166769
aF-7.203743667368399
aF-9.601638940166769
aF-9.601638940166769
aF-9.601638940166769
aF-7.203743667368399
aF-5.6698133074424435
aF-5.6698133074424435
aF-5.888066873462462
aF-9.601638940166769
aF-7.203743667368399
aF-9.601638940166769
aF-6.557116502443346
aF-5.888066873462462
aF-7.203743667368399
aF-9.601638940166769
aF-9.601638940166769
aF-9.601638940166769
aF-9.601638940166769
aF-9.601638940166769
aF-7.203743667368399
aF-5.490765075993458
aF-7.203743667368399
aF-3.9632842708330234
aF-3.7995205647897063
aF-5.490765075993458
aF-9.601638940166769
aF-3.4682408971701206
aF-5.090779433649919
aF-9.601638940166769
aF-7.203743667368399
aF-9.601638940166769
aF-6.557116502443346
aF-6.557116502443346
aF-9.601638940166769
aF-7.203743667368399
aF-3.7127609818338883
aF-7.203743667368399
aF-6.1676517356816225
aF-6.557116502443346
aF-9.601638940166769
aF-7.203743667368399
aF-6.557116502443346
aF-6.557116502443346
aF-9.601638940166769
aF-7.203743667368399
aF-9.601638940166769
aF-7.203743667368399
aF-5.6698133074424435
aF-4.5843591033518445
aF-9.601638940166769
aF-5.338959063125454
aF-6.1676517356816225
aF-9.601638940166769
aF-9.601638940166769
aF-9.601638940166769
aF-9.601638940166769
aF-9.601638940166769
aF-9.601638940166769
aF-9.601638940166769
aF-9.601638940166769
aF-5.338959063125454
aF-5.888066873462462
aF-9.601638940166769
aF-5.090779433649919
aF-6.557116502443346
aF-4.892108738854435
aF-9.601638940166769
aF-6.1676517356816225
aF-9.601638940166769
aF-5.6698133074424435
aF-7.203743667368399
aF-9.601638940166769
aF-9.601638940166769
aF-6.557116502443346
aF-4.5843591033518445
aF-5.338959063125454
aF-7.203743667368399
aF-7.203743667368399
aF-9.601638940166769
aF-4.459975383664109
aF-6.557116502443346
aF-6.557116502443346
aF-9.601638940166769
aF-9.601638940166769
aF-9.601638940166769
aF-5.888066873462462
aF-7.203743667368399
aF-7.203743667368399
aF-3.9283156729952764
aF-4.037118532844076
aF-5.888066873462462
aF-4.726441616965618
aF-3.999520119287068
aF-9.601638940166769
aF-9.601638940166769
aF-5.490765075993458
aF-7.203743667368399
aF-9.601638940166769
aF-5.2071897854943305
aF-9.601638940166769
aF-9.601638940166769
aF-9.601638940166769
aF-9.601638940166769
aF-9.601638940166769
aF-4.403141908900944
aF-6.1676517356816225
aF-9.601638940166769
aF-7.203743667368399
aF-9.601638940166769
aF-7.203743667368399
aF-3.7995205647897063
aF-9.601638940166769
aF-9.601638940166769
aF-9.601638940166769
aF-9.601638940166769
aF-6.557116502443346
aF-9.601638940166769
aF-7.203743667368399
aF-6.557116502443346
aF-5.888066873462462
aF-6.557116502443346
aF-3.7408527167009034
aF-5.6698133074424435
aF-4.403141908900944
aF-5.888066873462462
aF-9.601638940166769
aF-9.601638940166769
aF-4.520234575182306
aF-9.601638940166769
aF-7.203743667368399
aF-6.557116502443346
aF-4.5843591033518445
aF-5.2071897854943305
aF-6.1676517356816225
aF-4.520234575182306
aF-7.203743667368399
aF-9.601638940166769
aF-6.557116502443346
aF-7.203743667368399
aF-9.601638940166769
aF-9.601638940166769
aF-9.601638940166769
aF-9.601638940166769
aF-9.601638940166769
aF-9.601638940166769
aF-9.601638940166769
aF-9.601638940166769
aF-5.6698133074424435
aF-7.203743667368399
aF-9.601638940166769
aF-9.601638940166769
aF-5.888066873462462
aF-1.9755561820943885
aF-4.892108738854435
aF-7.203743667368399
aF-5.490765075993458
aF-9.601638940166769
aF-9.601638940166769
aF-6.1676517356816225
aF-5.338959063125454
aF-7.203743667368399
aF-5.6698133074424435
aF-9.601638940166769
aF-9.601638940166769
aF-9.601638940166769
aF-7.203743667368399
aF-9.601638940166769
aF-9.601638940166769
aF-7.203743667368399
aF-9.601638940166769
aF-9.601638940166769
aF-9.601638940166769
aF-9.601638940166769
aF-5.6698133074424435
aF-5.490765075993458
aF-9.601638940166769
aF-7.203743667368399
aF-6.557116502443346
aF-9.601638940166769
aF-6.1676517356816225
aF-4.805848394570028
aF-9.601638940166769
aF-5.888066873462462
aF-9.601638940166769
aF-9.601638940166769
aF-7.203743667368399
aF-9.601638940166769
aF-9.601638940166769
aF-2.606788954333698
aF-9.601638940166769
aF-3.999520119287068
aF-9.601638940166769
aF-3.385032839081904
aF-9.601638940166769
aF-9.601638940166769
aF-7.203743667368399
aF-9.601638940166769
aF-9.601638940166769
aF-9.601638940166769
aF-9.601638940166769
aF-6.557116502443346
aF-9.601638940166769
aF-9.601638940166769
aF-5.888066873462462
aF-9.601638940166769
aF-9.601638940166769
aF-9.601638940166769
aF-9.601638940166769
aF-9.601638940166769
aF-3.4051948123722484
aF-6.557116502443346
aF-7.203743667368399
aF-9.601638940166769
aF-9.601638940166769
aF-9.601638940166769
aF-9.601638940166769
aF-7.203743667368399
aF-9.601638940166769
aF-4.249780806690702
aF-9.601638940166769
aF-7.203743667368399
aF-7.203743667368399
aF-5.6698133074424435
aF-9.601638940166769
aF-7.203743667368399
aF-9.601638940166769
aF-9.601638940166769
aF-4.892108738854435
aF-4.805848394570028
aF-9.601638940166769
aF-5.6698133074424435
aF-9.601638940166769
aF-5.490765075993458
aF-9.601638940166769
aF-9.601638940166769
aF-9.601638940166769
aF-6.557116502443346
aF-7.203743667368399
aF-9.601638940166769
aF-6.1676517356816225
aF-9.601638940166769
aF-9.601638940166769
aF-1.330090565411255
aF-6.557116502443346
aF-9.601638940166769
aF-7.203743667368399
aF-7.203743667368399
aF-5.6698133074424435
aF-4.98651842332551
aF-9.601638940166769
aF-9.601638940166769
aF-9.601638940166769
aF-7.203743667368399
aF-1.7811994249045888
aF-9.601638940166769
aF-9.601638940166769
aF-9.601638940166769
aF-9.601638940166769
aF-7.203743667368399
aF-9.601638940166769
aF-5.888066873462462
aF-6.1676517356816225
aF-9.601638940166769
aF-6.1676517356816225
aF-9.601638940166769
aF-6.1676517356816225
aF-5.338959063125454
aF-7.203743667368399
aF-7.203743667368399
aF-6.1676517356816225
aF-9.601638940166769
aF-9.601638940166769
aF-7.203743667368399
aF-5.2071897854943305
aF-9.601638940166769
aF-5.338959063125454
aF-7.203743667368399
aF-4.1592212296449755
aF-6.557116502443346
aF-5.888066873462462
aF-3.6329313801814034
aF-9.601638940166769
aF-9.601638940166769
aF-6.1676517356816225
aF-6.557116502443346
aF-4.403141908900944
aF-9.601638940166769
aF-9.601638940166769
aF-4.652879049788601
aF-9.601638940166769
aF-9.601638940166769
aF-9.601638940166769
aF-9.601638940166769
aF-7.203743667368399
aF-4.98651842332551
aF-5.888066873462462
aF-7.203743667368399
aF-4.298334032107693
aF-7.203743667368399
aF-7.203743667368399
aF-9.601638940166769
aF-5.888066873462462
aF-6.557116502443346
aF-9.601638940166769
aF-7.203743667368399
aF-5.888066873462462
aF-4.459975383664109
aF-7.203743667368399
aF-7.203743667368399
aF-9.601638940166769
aF-6.1676517356816225
aF-7.203743667368399
aF-7.203743667368399
aF-9.601638940166769
aF-9.601638940166769
aF-9.601638940166769
aF-5.6698133074424435
aF-9.601638940166769
aF-4.349365512120139
aF-9.601638940166769
aF-6.557116502443346
aF-5.490765075993458
aF-4.037118532844076
aF-9.601638940166769
aF-6.1676517356816225
aF-9.601638940166769
aF-4.726441616965618
aF-7.203743667368399
aF-9.601638940166769
aF-7.203743667368399
aF-6.1676517356816225
aF-7.203743667368399
aF-9.601638940166769
aF-6.1676517356816225
aF-9.601638940166769
aF-7.203743667368399
aF-7.203743667368399
aF-7.203743667368399
aF-7.203743667368399
aF-9.601638940166769
aF-6.1676517356816225
aF-7.203743667368399
aF-7.203743667368399
aF-6.557116502443346
aF-6.1676517356816225
aF-4.805848394570028
aF-7.203743667368399
aF-9.601638940166769
aF-7.203743667368399
aF-9.601638940166769
aF-6.557116502443346
aF-9.601638940166769
aF-5.090779433649919
aF-9.601638940166769
aF-6.557116502443346
aF-5.888066873462462
aF-5.490765075993458
aF-5.338959063125454
aF-4.116842006676114
aF-5.338959063125454
aF-9.601638940166769
aF-3.5830457256705346
aF-7.203743667368399
aF-5.490765075993458
aF-7.203743667368399
aF-6.557116502443346
aF-6.1676517356816225
aF-7.203743667368399
aF-7.203743667368399
aF-7.203743667368399
aF-9.601638940166769
aF-9.601638940166769
aF-9.601638940166769
aF-9.601638940166769
aF-9.601638940166769
aF-5.6698133074424435
aF-9.601638940166769
aF-6.557116502443346
aF-9.601638940166769
aF-5.2071897854943305
aF-7.203743667368399
aF-7.203743667368399
aF-6.557116502443346
aF-7.203743667368399
aF-4.98651842332551
aF-7.203743667368399
aF-9.601638940166769
aF-7.203743667368399
aF-9.601638940166769
aF-9.601638940166769
aF-9.601638940166769
aF-3.1386094832460993
aF-7.203743667368399
aF-9.601638940166769
aF-4.805848394570028
aF-4.037118532844076
aF-3.7697564628832523
aF-4.98651842332551
aF-9.601638940166769
aF-5.888066873462462
aF-7.203743667368399
aF-9.601638940166769
aF-3.9283156729952764
aF-6.1676517356816225
aF-9.601638940166769
aF-9.601638940166769
aF-3.861846027987535
aF-6.557116502443346
aF-9.601638940166769
aF-6.1676517356816225
aF-4.726441616965618
aF-9.601638940166769
aF-2.7233124718754445
aF-4.203476238649016
aF-7.203743667368399
aF-5.338959063125454
aF-9.601638940166769
aF-7.203743667368399
aF-5.090779433649919
aF-4.076186001034985
aF-9.601638940166769
aF-7.203743667368399
aF-7.203743667368399
aF-9.601638940166769
aF-9.601638940166769
aF-7.203743667368399
aF-9.601638940166769
aF-9.601638940166769
aF-9.601638940166769
aF-4.1592212296449755
aF-9.601638940166769
aF-9.601638940166769
aF-5.2071897854943305
aF-9.601638940166769
aF-9.601638940166769
aF-4.5843591033518445
aF-6.1676517356816225
aF-7.203743667368399
aF-9.601638940166769
aF-9.601638940166769
aF-4.892108738854435
aF-9.601638940166769
aF-9.601638940166769
aF-5.090779433649919
aF-9.601638940166769
aF-9.601638940166769
aF-7.203743667368399
aF-9.601638940166769
aF-9.601638940166769
aF-9.601638940166769
aF-5.888066873462462
aF-9.601638940166769
aF-6.557116502443346
aF-9.601638940166769
aF-5.888066873462462
aF-6.557116502443346
aF-9.601638940166769
aF-5.888066873462462
aF-7.203743667368399
aF-6.557116502443346
aF-9.601638940166769
aF-9.601638940166769
aF-5.888066873462462
aF-9.601638940166769
aF-7.203743667368399
aF-9.601638940166769
aF-9.601638940166769
aF-9.601638940166769
aF-9.601638940166769
aF-5.888066873462462
aF-9.601638940166769
aF-9.601638940166769
aF-5.888066873462462
aF-5.888066873462462
aF-4.805848394570028
aF-5.338959063125454
aF-5.338959063125454
aF-9.601638940166769
aF-6.557116502443346
aF-5.888066873462462
aF-9.601638940166769
aF-6.557116502443346
aF-9.601638940166769
aF-9.601638940166769
aF-9.601638940166769
aF-9.601638940166769
aF-7.203743667368399
aF-9.601638940166769
aF-9.601638940166769
aF-5.888066873462462
aF-4.805848394570028
aF-6.557116502443346
aF-9.601638940166769
aF-9.601638940166769
aF-9.601638940166769
aF-9.601638940166769
aF-9.601638940166769
aF-9.601638940166769
aF-9.601638940166769
aF-5.888066873462462
aF-9.601638940166769
aF-7.203743667368399
aF-9.601638940166769
aF-6.557116502443346
aF-4.1592212296449755
aF-7.203743667368399
aF-7.203743667368399
aF-9.601638940166769
aF-9.601638940166769
aF-9.601638940166769
aF-9.601638940166769
aF-6.1676517356816225
aF-4.726441616965618
aF-5.888066873462462
aF-7.203743667368399
aF-9.601638940166769
aF-4.805848394570028
aF-6.1676517356816225
aF-7.203743667368399
aF-4.892108738854435
aF-9.601638940166769
aF-9.601638940166769
aF-9.601638940166769
aF-9.601638940166769
aF-9.601638940166769
aF-7.203743667368399
aF-9.601638940166769
aF-9.601638940166769
aF-9.601638940166769
aF-9.601638940166769
aF-6.557116502443346
aF-7.203743667368399
aF-5.888066873462462
aF-9.601638940166769
aF-9.601638940166769
aF-4.726441616965618
aF-7.203743667368399
aF-9.601638940166769
aF-5.888066873462462
aF-5.6698133074424435
aF-5.490765075993458
aF-6.1676517356816225
aF-5.338959063125454
aF-9.601638940166769
aF-9.601638940166769
aF-9.601638940166769
aF-9.601638940166769
aF-6.557116502443346
aF-4.5843591033518445
aF-6.557116502443346
aF-5.090779433649919
aF-4.520234575182306
aF-6.557116502443346
aF-4.349365512120139
aF-4.459975383664109
aF-9.601638940166769
aF-3.6076775128602
aF-3.512594064719923
aF-6.1676517356816225
aF-6.557116502443346
aF-9.601638940166769
aF-9.601638940166769
aF-9.601638940166769
aF-6.557116502443346
aF-9.601638940166769
aF-3.8301978170367534
aF-9.601638940166769
aF-6.557116502443346
aF-9.601638940166769
aF-7.203743667368399
aF-5.6698133074424435
aF-5.2071897854943305
aF-7.203743667368399
aF-4.805848394570028
aF-5.888066873462462
aF-9.601638940166769
aF-5.2071897854943305
aF-4.892108738854435
aF-9.601638940166769
aF-6.1676517356816225
aF-4.5843591033518445
aF-7.203743667368399
aF-5.888066873462462
aF-9.601638940166769
aF-7.203743667368399
aF-9.601638940166769
aF-5.2071897854943305
aF-5.490765075993458
aF-6.557116502443346
aF-9.601638940166769
aF-7.203743667368399
aF-6.1676517356816225
aF-7.203743667368399
aF-9.601638940166769
aF-5.888066873462462
aF-6.557116502443346
aF-6.1676517356816225
aF-9.601638940166769
aF-6.557116502443346
aF-9.601638940166769
aF-6.557116502443346
aF-9.601638940166769
aF-5.2071897854943305
aF-4.892108738854435
aF-2.5532525314448864
aF-5.6698133074424435
aF-4.116842006676114
aF-6.557116502443346
aF-7.203743667368399
aF-9.601638940166769
aF-9.601638940166769
aF-3.0634991163990994
aF-6.557116502443346
aF-6.1676517356816225
aF-6.557116502443346
aF-3.1703078582332904
aF-6.557116502443346
aF-3.0634991163990994
aF-4.98651842332551
aF-4.98651842332551
aF-4.349365512120139
aF-5.888066873462462
aF-9.601638940166769
aF-9.601638940166769
aF-9.601638940166769
aF-5.490765075993458
aF-9.601638940166769
aF-7.203743667368399
aF-4.98651842332551
aF-5.2071897854943305
aF-7.203743667368399
aF-9.601638940166769
aF-5.338959063125454
aF-9.601638940166769
aF-6.557116502443346
aF-9.601638940166769
aF-9.601638940166769
aF-5.888066873462462
aF-4.98651842332551
aF-5.6698133074424435
aF-3.0780766340172567
aF-6.557116502443346
aF-9.601638940166769
aF-9.601638940166769
aF-9.601638940166769
aF-4.076186001034985
aF-9.601638940166769
aF-9.601638940166769
aF-7.203743667368399
aF-4.805848394570028
aF-4.892108738854435
aF-5.6698133074424435
aF-5.888066873462462
aF-9.601638940166769
aF-4.652879049788601
aF-9.601638940166769
aF-4.892108738854435
aF-9.601638940166769
aF-7.203743667368399
aF-5.490765075993458
aF-9.601638940166769
aF-5.490765075993458
aF-9.601638940166769
aF-9.601638940166769
aF-6.557116502443346
aF-9.601638940166769
aF-5.2071897854943305
aF-5.888066873462462
aF-9.601638940166769
aF-6.557116502443346
aF-7.203743667368399
aF-4.892108738854435
aF-6.557116502443346
aF-5.490765075993458
aF-5.888066873462462
aF-4.892108738854435
aF-4.726441616965618
aF-9.601638940166769
aF-6.557116502443346
aF-6.557116502443346
aF-7.203743667368399
aF-3.1386094832460993
aF-9.601638940166769
aF-4.116842006676114
aF-9.601638940166769
aF-9.601638940166769
aF-6.1676517356816225
aF-7.203743667368399
aF-6.557116502443346
aF-7.203743667368399
aF-5.888066873462462
aF-6.557116502443346
aF-9.601638940166769
aF-5.888066873462462
aF-9.601638940166769
aF-9.601638940166769
aF-9.601638940166769
aF-4.98651842332551
aF-3.7995205647897063
aF-4.98651842332551
aF-9.601638940166769
aF-9.601638940166769
aF-9.601638940166769
aF-9.601638940166769
aF-7.203743667368399
aF-6.1676517356816225
aF-9.601638940166769
aF-5.888066873462462
aF-6.557116502443346
aF-7.203743667368399
aF-7.203743667368399
aF-5.888066873462462
aF-9.601638940166769
aF-7.203743667368399
aF-7.203743667368399
aF-5.2071897854943305
aF-6.1676517356816225
aF-4.805848394570028
aF-4.805848394570028
aF-6.1676517356816225
aF-3.9283156729952764
aF-5.6698133074424435
aF-6.1676517356816225
aF-5.490765075993458
aF-9.601638940166769
aF-9.601638940166769
aF-9.601638940166769
aF-5.490765075993458
aF-4.349365512120139
aF-7.203743667368399
aF-6.557116502443346
aF-3.658839565040068
aF-9.601638940166769
aF-4.076186001034985
aF-4.5843591033518445
aF-9.601638940166769
aF-6.557116502443346
aF-9.601638940166769
aF-9.601638940166769
aF-6.1676517356816225
aF-9.601638940166769
aF-6.557116502443346
aF-9.601638940166769
aF-6.557116502443346
aF-6.557116502443346
aF-9.601638940166769
aF-4.98651842332551
aF-9.601638940166769
aF-5.2071897854943305
aF-4.1592212296449755
aF-7.203743667368399
aF-7.203743667368399
aF-6.557116502443346
aF-4.805848394570028
aF-9.601638940166769
aF-7.203743667368399
aF-7.203743667368399
aF-9.601638940166769
aF-7.203743667368399
aF-6.1676517356816225
aF-6.557116502443346
aF-9.601638940166769
aF-7.203743667368399
aF-9.601638940166769
aF-9.601638940166769
aF-9.601638940166769
aF-5.338959063125454
aF-7.203743667368399
aF-6.557116502443346
aF-9.601638940166769
aF-7.203743667368399
aF-9.601638940166769
aF-7.203743667368399
aF-9.601638940166769
aF-5.888066873462462
aF-9.601638940166769
aF-7.203743667368399
aF-7.203743667368399
aF-5.888066873462462
aF-7.203743667368399
aF-9.601638940166769
aF-9.601638940166769
aF-9.601638940166769
aF-5.490765075993458
aF-9.601638940166769
aF-4.349365512120139
aF-4.076186001034985
aF-5.090779433649919
aF-5.6698133074424435
aF-5.338959063125454
aF-5.888066873462462
aF-7.203743667368399
aF-9.601638940166769
aF-9.601638940166769
aF-3.3082196613202877
aF-4.5843591033518445
aF-5.2071897854943305
aF-3.2899041310138544
aF-6.557116502443346
aF-9.601638940166769
aF-9.601638940166769
aF-9.601638940166769
aF-4.652879049788601
aF-5.888066873462462
aF-9.601638940166769
aF-9.601638940166769
aF-9.601638940166769
aF-9.601638940166769
aF-4.5843591033518445
aF-7.203743667368399
aF-6.557116502443346
aF-5.090779433649919
aF-9.601638940166769
aF-9.601638940166769
aF-9.601638940166769
aF-9.601638940166769
aF-9.601638940166769
aF-5.6698133074424435
aF-7.203743667368399
aF-9.601638940166769
aF-9.601638940166769
aF-9.601638940166769
aF-9.601638940166769
aF-4.298334032107693
aF-5.888066873462462
aF-6.557116502443346
aF-9.601638940166769
aF-7.203743667368399
aF-9.601638940166769
aF-7.203743667368399
aF-7.203743667368399
aF-7.203743667368399
aF-5.338959063125454
aF-7.203743667368399
aF-9.601638940166769
aF-4.892108738854435
aF-5.888066873462462
aF-5.338959063125454
aF-7.203743667368399
aF-9.601638940166769
aF-6.557116502443346
aF-7.203743667368399
aF-7.203743667368399
aF-9.601638940166769
aF-9.601638940166769
aF-4.520234575182306
aF-7.203743667368399
aF-9.601638940166769
aF-4.1592212296449755
aF-5.6698133074424435
aF-4.98651842332551
aF-6.557116502443346
aF-6.1676517356816225
aF-4.98651842332551
aF-9.601638940166769
aF-9.601638940166769
aF-9.601638940166769
aF-6.557116502443346
aF-3.9632842708330234
aF-9.601638940166769
aF-9.601638940166769
aF-9.601638940166769
aF-3.8301978170367534
aF-9.601638940166769
aF-4.403141908900944
aF-9.601638940166769
aF-5.338959063125454
aF-6.557116502443346
aF-5.338959063125454
aF-3.7995205647897063
aF-9.601638940166769
aF-3.3458888984134023
aF-3.9283156729952764
aF-6.1676517356816225
aF-7.203743667368399
aF-9.601638940166769
aF-6.557116502443346
aF-5.490765075993458
aF-9.601638940166769
aF-9.601638940166769
aF-4.349365512120139
aF-4.520234575182306
aF-9.601638940166769
aF-4.459975383664109
aF-3.999520119287068
aF-4.726441616965618
aF-5.888066873462462
aF-7.203743667368399
aF-5.490765075993458
aF-6.557116502443346
aF-3.365269349963065
aF-9.601638940166769
aF-5.888066873462462
aF-6.1676517356816225
aF-5.6698133074424435
aF-5.2071897854943305
aF-9.601638940166769
aF-4.98651842332551
aF-4.459975383664109
aF-9.601638940166769
aF-9.601638940166769
aF-6.557116502443346
aF-9.601638940166769
aF-7.203743667368399
aF-4.892108738854435
aF-7.203743667368399
aF-6.557116502443346
aF-7.203743667368399
aF-9.601638940166769
aF-7.203743667368399
aF-9.601638940166769
aF-5.090779433649919
aF-5.888066873462462
aF-9.601638940166769
aF-4.403141908900944
aF-9.601638940166769
aF-6.557116502443346
aF-7.203743667368399
aF-9.601638940166769
aF-9.601638940166769
aF-9.601638940166769
aF-4.98651842332551
aF-9.601638940166769
aF-5.888066873462462
aF-5.888066873462462
aF-5.888066873462462
aF-7.203743667368399
aF-9.601638940166769
aF-7.203743667368399
aF-9.601638940166769
aF-3.658839565040068
aF-5.888066873462462
aF-5.888066873462462
aF-4.520234575182306
aF-5.490765075993458
aF-9.601638940166769
aF-5.338959063125454
aF-5.6698133074424435
aF-6.557116502443346
aF-7.203743667368399
aF-3.8945286754178934
aF-9.601638940166769
aF-9.601638940166769
aF-6.557116502443346
aF-5.2071897854943305
aF-9.601638940166769
aF-6.557116502443346
aF-4.1592212296449755
aF-4.116842006676114
aF-9.601638940166769
aF-9.601638940166769
aF-9.601638940166769
aF-5.090779433649919
aF-9.601638940166769
aF-2.644141569289818
aF-9.601638940166769
aF-6.557116502443346
aF-4.5843591033518445
aF-4.459975383664109
aF-6.1676517356816225
aF-6.557116502443346
aF-9.601638940166769
aF-7.203743667368399
aF-9.601638940166769
aF-6.557116502443346
aF-7.203743667368399
aF-9.601638940166769
aF-9.601638940166769
aF-5.090779433649919
aF-7.203743667368399
aF-7.203743667368399
aF-6.557116502443346
aF-5.888066873462462
aF-4.459975383664109
aF-2.6159971225275607
aF-9.601638940166769
aF-5.6698133074424435
aF-7.203743667368399
aF-9.601638940166769
aF-4.203476238649016
aF-9.601638940166769
aF-6.557116502443346
aF-9.601638940166769
aF-2.400468056885091
aF-6.1676517356816225
aF-9.601638940166769
aF-9.601638940166769
aF-9.601638940166769
aF-6.557116502443346
aF-9.601638940166769
aF-9.601638940166769
aF-7.203743667368399
aF-9.601638940166769
aF-6.557116502443346
aF-9.601638940166769
aF-4.652879049788601
aF-5.888066873462462
aF-6.557116502443346
aF-6.557116502443346
aF-6.557116502443346
aF-7.203743667368399
aF-6.557116502443346
aF-6.1676517356816225
aF-9.601638940166769
aF-9.601638940166769
aF-7.203743667368399
aF-7.203743667368399
aF-9.601638940166769
aF-6.557116502443346
aF-6.1676517356816225
aF-3.5830457256705346
aF-5.490765075993458
aF-6.557116502443346
aF-5.888066873462462
aF-7.203743667368399
aF-9.601638940166769
aF-9.601638940166769
aF-6.557116502443346
aF-6.557116502443346
aF-7.203743667368399
aF-9.601638940166769
aF-6.1676517356816225
aF-9.601638940166769
aF-9.601638940166769
aF-4.520234575182306
aF-9.601638940166769
aF-9.601638940166769
aF-9.601638940166769
aF-9.601638940166769
aF-4.892108738854435
aF-7.203743667368399
aF-9.601638940166769
aF-6.1676517356816225
aF-6.1676517356816225
aF-9.601638940166769
aF-6.557116502443346
aF-9.601638940166769
aF-6.1676517356816225
aF-7.203743667368399
aF-6.557116502443346
aF-9.601638940166769
aF-5.888066873462462
aF-7.203743667368399
aF-7.203743667368399
aF-9.601638940166769
aF-9.601638940166769
aF-9.601638940166769
aF-9.601638940166769
aF-7.203743667368399
aF-9.601638940166769
aF-4.98651842332551
aF-7.203743667368399
aF-7.203743667368399
aF-7.203743667368399
aF-9.601638940166769
aF-7.203743667368399
aF-9.601638940166769
aF-6.557116502443346
aF-9.601638940166769
aF-9.601638940166769
aF-9.601638940166769
aF-9.601638940166769
aF-9.601638940166769
aF-9.601638940166769
aF-9.601638940166769
aF-9.601638940166769
aF-9.601638940166769
aF-9.601638940166769
aF-6.1676517356816225
aF-5.888066873462462
aF-9.601638940166769
aF-9.601638940166769
aF-6.1676517356816225
aF-7.203743667368399
aF-4.98651842332551
aF-5.2071897854943305
aF-4.037118532844076
aF-6.1676517356816225
aF-3.8945286754178934
aF-4.892108738854435
aF-9.601638940166769
aF-9.601638940166769
aF-9.601638940166769
aF-6.557116502443346
aF-7.203743667368399
aF-9.601638940166769
aF-6.557116502443346
aF-9.601638940166769
aF-9.601638940166769
aF-6.1676517356816225
aF-7.203743667368399
aF-7.203743667368399
aF-7.203743667368399
aF-4.98651842332551
aF-7.203743667368399
aF-9.601638940166769
aF-5.338959063125454
aF-6.1676517356816225
aF-9.601638940166769
aF-9.601638940166769
aF-9.601638940166769
aF-9.601638940166769
aF-9.601638940166769
aF-9.601638940166769
aF-9.601638940166769
aF-5.2071897854943305
aF-5.338959063125454
aF-5.888066873462462
aF-9.601638940166769
aF-7.203743667368399
aF-6.1676517356816225
aF-6.1676517356816225
aF-9.601638940166769
aF-9.601638940166769
aF-9.601638940166769
aF-9.601638940166769
aF-9.601638940166769
aF-5.6698133074424435
aF-5.090779433649919
aF-9.601638940166769
aF-9.601638940166769
aF-9.601638940166769
aF-6.557116502443346
aF-9.601638940166769
aF-7.203743667368399
aF-9.601638940166769
aF-9.601638940166769
aF-9.601638940166769
aF-7.203743667368399
aF-9.601638940166769
aF-9.601638940166769
aF-9.601638940166769
aF-4.98651842332551
aF-4.5843591033518445
aF-7.203743667368399
aF-4.98651842332551
aF-9.601638940166769
aF-7.203743667368399
aF-5.6698133074424435
aF-7.203743667368399
aF-9.601638940166769
aF-9.601638940166769
aF-9.601638940166769
aF-9.601638940166769
aF-9.601638940166769
aF-9.601638940166769
aF-4.203476238649016
aF-7.203743667368399
aF-5.888066873462462
aF-5.338959063125454
aF-9.601638940166769
aF-9.601638940166769
aF-7.203743667368399
aF-9.601638940166769
aF-9.601638940166769
aF-9.601638940166769
aF-5.6698133074424435
aF-9.601638940166769
aF-6.557116502443346
aF-4.892108738854435
aF-9.601638940166769
aF-9.601638940166769
aF-3.8945286754178934
aF-4.1592212296449755
aF-5.090779433649919
aF-5.490765075993458
aF-9.601638940166769
aF-6.1676517356816225
aF-7.203743667368399
aF-9.601638940166769
aF-9.601638940166769
aF-9.601638940166769
aF-9.601638940166769
aF-7.203743667368399
aF-9.601638940166769
aF-9.601638940166769
aF-9.601638940166769
aF-9.601638940166769
aF-9.601638940166769
aF-9.601638940166769
aF-4.459975383664109
aF-9.601638940166769
aF-9.601638940166769
aF-3.8945286754178934
aF-9.601638940166769
aF-4.520234575182306
aF-5.6698133074424435
aF-9.601638940166769
aF-7.203743667368399
aF-5.888066873462462
aF-7.203743667368399
aF-9.601638940166769
aF-7.203743667368399
aF-9.601638940166769
aF-9.601638940166769
aF-6.557116502443346
aF-9.601638940166769
aF-7.203743667368399
aF-9.601638940166769
aF-9.601638940166769
aF-4.892108738854435
aF-7.203743667368399
aF-9.601638940166769
aF-7.203743667368399
aF-5.888066873462462
aF-7.203743667368399
aF-7.203743667368399
aF-6.557116502443346
aF-6.557116502443346
aF-9.601638940166769
aF-4.652879049788601
aF-6.557116502443346
aF-5.490765075993458
aF-6.557116502443346
aF-7.203743667368399
aF-4.892108738854435
aF-5.338959063125454
aF-9.601638940166769
aF-9.601638940166769
aF-9.601638940166769
aF-9.601638940166769
aF-9.601638940166769
aF-7.203743667368399
aF-5.490765075993458
aF-6.1676517356816225
aF-7.203743667368399
aF-9.601638940166769
aF-7.203743667368399
aF-9.601638940166769
aF-5.338959063125454
aF-7.203743667368399
aF-9.601638940166769
aF-9.601638940166769
aF-5.888066873462462
aF-7.203743667368399
aF-4.726441616965618
aF-6.557116502443346
aF-9.601638940166769
aF-3.1231292979582
aF-5.888066873462462
aF-3.9283156729952764
aF-3.685436877559334
aF-2.91577799309841
aF-5.490765075993458
aF-6.1676517356816225
aF-9.601638940166769
aF-7.203743667368399
aF-9.601638940166769
aF-4.892108738854435
aF-6.1676517356816225
aF-5.090779433649919
aF-9.601638940166769
aF-9.601638940166769
aF-9.601638940166769
aF-9.601638940166769
aF-7.203743667368399
aF-9.601638940166769
aF-7.203743667368399
aF-9.601638940166769
aF-9.601638940166769
aF-7.203743667368399
aF-9.601638940166769
aF-5.888066873462462
aF-9.601638940166769
aF-9.601638940166769
aF-5.338959063125454
aF-9.601638940166769
aF-9.601638940166769
aF-9.601638940166769
aF-9.601638940166769
aF-4.298334032107693
aF-9.601638940166769
aF-6.1676517356816225
aF-9.601638940166769
aF-6.557116502443346
aF-9.601638940166769
aF-9.601638940166769
aF-9.601638940166769
aF-9.601638940166769
aF-7.203743667368399
aF-7.203743667368399
aF-5.888066873462462
aF-9.601638940166769
aF-9.601638940166769
aF-9.601638940166769
aF-9.601638940166769
aF-7.203743667368399
aF-7.203743667368399
aF-9.601638940166769
aF-9.601638940166769
aF-9.601638940166769
aF-9.601638940166769
aF-5.338959063125454
aF-4.076186001034985
aF-4.037118532844076
aF-6.1676517356816225
aF-4.459975383664109
aF-6.1676517356816225
aF-6.557116502443346
aF-7.203743667368399
aF-9.601638940166769
aF-9.601638940166769
aF-9.601638940166769
aF-6.557116502443346
aF-7.203743667368399
aF-3.999520119287068
aF-9.601638940166769
aF-5.490765075993458
aF-5.888066873462462
aF-9.601638940166769
aF-9.601638940166769
aF-4.520234575182306
aF-9.601638940166769
aF-9.601638940166769
aF-9.601638940166769
aF-9.601638940166769
aF-9.601638940166769
aF-9.601638940166769
aF-5.490765075993458
aF-9.601638940166769
aF-9.601638940166769
aF-7.203743667368399
aF-6.1676517356816225
aF-9.601638940166769
aF-9.601638940166769
aF-9.601638940166769
aF-9.601638940166769
aF-9.601638940166769
aF-7.203743667368399
aF-9.601638940166769
aF-9.601638940166769
aF-9.601638940166769
aF-9.601638940166769
aF-7.203743667368399
aF-9.601638940166769
aF-9.601638940166769
aF-9.601638940166769
aF-7.203743667368399
aF-9.601638940166769
aF-6.557116502443346
aF-9.601638940166769
aF-9.601638940166769
aF-9.601638940166769
aF-9.601638940166769
aF-9.601638940166769
aF-9.601638940166769
aF-9.601638940166769
aF-6.557116502443346
aF-9.601638940166769
aF-6.557116502443346
aF-9.601638940166769
aF-7.203743667368399
aF-9.601638940166769
aF-9.601638940166769
aF-6.557116502443346
aF-6.1676517356816225
aF-9.601638940166769
aF-9.601638940166769
aF-9.601638940166769
aF-7.203743667368399
aF-5.338959063125454
aF-5.888066873462462
aF-7.203743667368399
aF-9.601638940166769
aF-9.601638940166769
aF-6.1676517356816225
aF-6.557116502443346
aF-9.601638940166769
aF-6.557116502443346
aF-7.203743667368399
aF-9.601638940166769
aF-9.601638940166769
aF-9.601638940166769
aF-9.601638940166769
aF-9.601638940166769
aF-9.601638940166769
aF-9.601638940166769
aF-6.1676517356816225
aF-6.1676517356816225
aF-9.601638940166769
aF-9.601638940166769
aF-9.601638940166769
aF-7.203743667368399
aF-9.601638940166769
aF-6.557116502443346
aF-6.557116502443346
aF-9.601638940166769
aF-6.557116502443346
aF-9.601638940166769
aF-9.601638940166769
aF-5.090779433649919
aF-5.888066873462462
aF-7.203743667368399
aF-9.601638940166769
aF-9.601638940166769
aF-9.601638940166769
aF-9.601638940166769
aF-5.338959063125454
aF-9.601638940166769
aF-9.601638940166769
aF-5.888066873462462
aF-7.203743667368399
aF-7.203743667368399
aF-7.203743667368399
aF-7.203743667368399
aF-9.601638940166769
aF-7.203743667368399
aF-9.601638940166769
aF-7.203743667368399
aF-9.601638940166769
aF-5.338959063125454
aF-9.601638940166769
aF-9.601638940166769
aF-9.601638940166769
aF-9.601638940166769
aF-7.203743667368399
aF-7.203743667368399
aF-9.601638940166769
aF-9.601638940166769
aF-9.601638940166769
aF-9.601638940166769
aF-9.601638940166769
aF-9.601638940166769
aF-9.601638940166769
aF-9.601638940166769
aF-9.601638940166769
aF-7.203743667368399
aF-9.601638940166769
aF-9.601638940166769
aF-7.203743667368399
aF-6.557116502443346
aF-9.601638940166769
aF-9.601638940166769
aF-9.601638940166769
aF-7.203743667368399
aF-9.601638940166769
aF-9.601638940166769
aF-6.557116502443346
aF-9.601638940166769
aF-9.601638940166769
aF-7.203743667368399
aF-9.601638940166769
aF-7.203743667368399
aF-9.601638940166769
aF-9.601638940166769
aF-9.601638940166769
aF-9.601638940166769
aF-6.557116502443346
aF-9.601638940166769
aF-9.601638940166769
aF-7.203743667368399
aF-7.203743667368399
aF-7.203743667368399
aF-9.601638940166769
aF-9.601638940166769
aF-6.1676517356816225
aF-7.203743667368399
aF-9.601638940166769
aF-5.888066873462462
aF-9.601638940166769
aF-7.203743667368399
aF-9.601638940166769
aF-9.601638940166769
aF-7.203743667368399
aF-9.601638940166769
aF-9.601638940166769
aF-9.601638940166769
aF-9.601638940166769
aF-9.601638940166769
aF-9.601638940166769
aF-9.601638940166769
aF-9.601638940166769
aF-9.601638940166769
aF-9.601638940166769
aF-9.601638940166769
aF-9.601638940166769
aF-7.203743667368399
aF-9.601638940166769
aF-7.203743667368399
aF-9.601638940166769
aF-9.601638940166769
aF-9.601638940166769
aF-9.601638940166769
aF-6.557116502443346
aF-7.203743667368399
aF-9.601638940166769
aF-7.203743667368399
aF-7.203743667368399
aF-9.601638940166769
aF-5.6698133074424435
aF-5.490765075993458
aF-5.2071897854943305
aF-9.601638940166769
aF-5.6698133074424435
aF-6.557116502443346
aF-7.203743667368399
aF-5.338959063125454
aF-4.5843591033518445
aF-4.98651842332551
aF-5.6698133074424435
aF-9.601638940166769
aF-9.601638940166769
aF-6.1676517356816225
aF-6.1676517356816225
aF-9.601638940166769
aF-9.601638940166769
aF-5.6698133074424435
aF-6.1676517356816225
aF-9.601638940166769
aF-6.557116502443346
aF-7.203743667368399
aF-4.98651842332551
aF-3.4682408971701206
aF-6.1676517356816225
aF-9.601638940166769
aF-9.601638940166769
aF-6.557116502443346
aF-9.601638940166769
aF-5.338959063125454
aF-7.203743667368399
aF-7.203743667368399
aF-9.601638940166769
aF-9.601638940166769
aF-9.601638940166769
aF-9.601638940166769
aF-5.6698133074424435
aF-7.203743667368399
aF-9.601638940166769
aF-7.203743667368399
aF-9.601638940166769
aF-6.557116502443346
aF-9.601638940166769
aF-5.6698133074424435
aF-6.557116502443346
aF-6.557116502443346
aF-9.601638940166769
aF-5.6698133074424435
aF-9.601638940166769
aF-4.459975383664109
aF-4.892108738854435
aF-9.601638940166769
aF-9.601638940166769
aF-9.601638940166769
aF-9.601638940166769
aF-3.0072254804169907
aF-6.1676517356816225
aF-9.601638940166769
aF-7.203743667368399
aF-4.805848394570028
aF-9.601638940166769
aF-9.601638940166769
aF-9.601638940166769
aF-6.557116502443346
aF-9.601638940166769
aF-6.557116502443346
aF-6.1676517356816225
aF-9.601638940166769
aF-9.601638940166769
aF-9.601638940166769
aF-9.601638940166769
aF-5.888066873462462
aF-5.490765075993458
aF-7.203743667368399
aF-9.601638940166769
aF-9.601638940166769
aF-5.6698133074424435
aF-9.601638940166769
aF-9.601638940166769
aF-4.5843591033518445
aF-6.1676517356816225
aF-6.1676517356816225
aF-9.601638940166769
aF-4.726441616965618
aF-7.203743667368399
aF-5.888066873462462
aF-7.203743667368399
aF-9.601638940166769
aF-5.888066873462462
aF-6.557116502443346
aF-5.6698133074424435
aF-6.557116502443346
aF-4.892108738854435
aF-5.6698133074424435
aF-5.888066873462462
aF-9.601638940166769
aF-9.601638940166769
aF-5.888066873462462
aF-9.601638940166769
aF-7.203743667368399
aF-7.203743667368399
aF-6.1676517356816225
aF-7.203743667368399
aF-9.601638940166769
aF-9.601638940166769
aF-9.601638940166769
aF-9.601638940166769
aF-6.557116502443346
aF-9.601638940166769
aF-9.601638940166769
aF-5.888066873462462
aF-4.652879049788601
aF-6.1676517356816225
aF-4.726441616965618
aF-5.888066873462462
aF-9.601638940166769
aF-9.601638940166769
aF-9.601638940166769
aF-4.298334032107693
aF-9.601638940166769
aF-4.1592212296449755
aF-9.601638940166769
aF-7.203743667368399
aF-9.601638940166769
aF-9.601638940166769
aF-6.1676517356816225
aF-5.490765075993458
aF-5.2071897854943305
aF-6.1676517356816225
aF-9.601638940166769
aF-7.203743667368399
aF-9.601638940166769
aF-7.203743667368399
aF-9.601638940166769
aF-5.338959063125454
aF-6.1676517356816225
aF-7.203743667368399
aF-4.116842006676114
aF-5.2071897854943305
aF-4.1592212296449755
aF-5.888066873462462
aF-9.601638940166769
aF-5.6698133074424435
aF-6.557116502443346
aF-7.203743667368399
aF-9.601638940166769
aF-4.298334032107693
aF-9.601638940166769
aF-7.203743667368399
aF-4.520234575182306
aF-5.6698133074424435
aF-9.601638940166769
aF-9.601638940166769
aF-2.9033708860513565
aF-9.601638940166769
aF-6.557116502443346
aF-9.601638940166769
aF-9.601638940166769
aF-9.601638940166769
aF-3.861846027987535
aF-7.203743667368399
aF-9.601638940166769
aF-6.557116502443346
aF-9.601638940166769
aF-7.203743667368399
aF-5.888066873462462
aF-9.601638940166769
aF-9.601638940166769
aF-6.557116502443346
aF-2.7336645311964767
aF-4.116842006676114
aF-6.1676517356816225
aF-9.601638940166769
aF-9.601638940166769
aF-5.490765075993458
aF-5.888066873462462
aF-9.601638940166769
aF-5.6698133074424435
aF-4.652879049788601
aF-9.601638940166769
aF-9.601638940166769
aF-9.601638940166769
aF-9.601638940166769
aF-9.601638940166769
aF-7.203743667368399
aF-9.601638940166769
aF-7.203743667368399
aF-6.1676517356816225
aF-9.601638940166769
aF-7.203743667368399
aF-9.601638940166769
aF-9.601638940166769
aF-9.601638940166769
aF-9.601638940166769
aF-9.601638940166769
aF-9.601638940166769
aF-9.601638940166769
aF-7.203743667368399
aF-6.1676517356816225
aF-5.2071897854943305
aF-5.6698133074424435
aF-6.557116502443346
aF-6.557116502443346
aF-4.892108738854435
aF-7.203743667368399
aF-6.557116502443346
aF-7.203743667368399
aF-9.601638940166769
aF-9.601638940166769
aF-9.601638940166769
aF-5.090779433649919
aF-6.1676517356816225
aF-6.1676517356816225
aF-9.601638940166769
aF-9.601638940166769
aF-9.601638940166769
aF-7.203743667368399
aF-9.601638940166769
aF-5.490765075993458
aF-9.601638940166769
aF-7.203743667368399
aF-5.6698133074424435
aF-5.490765075993458
aF-9.601638940166769
aF-7.203743667368399
aF-9.601638940166769
aF-7.203743667368399
aF-6.557116502443346
aF-7.203743667368399
aF-5.6698133074424435
aF-5.338959063125454
aF-7.203743667368399
aF-5.888066873462462
aF-6.557116502443346
aF-6.557116502443346
aF-9.601638940166769
aF-9.601638940166769
aF-7.203743667368399
aF-9.601638940166769
aF-9.601638940166769
aF-3.8945286754178934
aF-9.601638940166769
aF-9.601638940166769
aF-9.601638940166769
aF-9.601638940166769
aF-7.203743667368399
aF-5.338959063125454
aF-4.203476238649016
aF-4.249780806690702
aF-9.601638940166769
aF-9.601638940166769
aF-9.601638940166769
aF-9.601638940166769
aF-9.601638940166769
aF-9.601638940166769
aF-3.861846027987535
aF-4.726441616965618
aF-7.203743667368399
aF-5.2071897854943305
aF-5.490765075993458
aF-9.601638940166769
aF-6.1676517356816225
aF-9.601638940166769
aF-2.787096042906811
aF-2.9802332884026344
aF-6.1676517356816225
aF-3.2899041310138544
aF-4.652879049788601
aF-4.520234575182306
aF-4.892108738854435
aF-9.601638940166769
aF-7.203743667368399
aF-7.203743667368399
aF-9.601638940166769
aF-9.601638940166769
aF-1.7495887329008797
aF-9.601638940166769
aF-6.557116502443346
aF-9.601638940166769
aF-9.601638940166769
aF-9.601638940166769
aF-6.1676517356816225
aF-7.203743667368399
aF-9.601638940166769
aF-9.601638940166769
aF-9.601638940166769
aF-9.601638940166769
aF-6.1676517356816225
aF-4.203476238649016
aF-2.527522123969407
aF-6.557116502443346
aF-9.601638940166769
aF-9.601638940166769
aF-5.888066873462462
aF-9.601638940166769
aF-4.805848394570028
aF-7.203743667368399
aF-5.338959063125454
aF-6.1676517356816225
aF-7.203743667368399
aF-9.601638940166769
aF-9.601638940166769
aF-9.601638940166769
aF-9.601638940166769
aF-7.203743667368399
aF-9.601638940166769
aF-7.203743667368399
aF-9.601638940166769
aF-9.601638940166769
aF-9.601638940166769
aF-6.557116502443346
aF-9.601638940166769
aF-9.601638940166769
aF-9.601638940166769
aF-9.601638940166769
aF-9.601638940166769
aF-5.338959063125454
aF-7.203743667368399
aF-9.601638940166769
aF-9.601638940166769
aF-5.888066873462462
aF-9.601638940166769
aF-9.601638940166769
aF-9.601638940166769
aF-7.203743667368399
aF-6.557116502443346
aF-9.601638940166769
aF-6.557116502443346
aF-6.557116502443346
aF-9.601638940166769
aF-7.203743667368399
aF-9.601638940166769
aF-5.6698133074424435
aF-6.557116502443346
aF-7.203743667368399
aF-9.601638940166769
aF-9.601638940166769
aF-9.601638940166769
aF-5.2071897854943305
aF-6.1676517356816225
aF-9.601638940166769
aF-6.557116502443346
aF-7.203743667368399
aF-9.601638940166769
aF-7.203743667368399
aF-9.601638940166769
aF-9.601638940166769
aF-7.203743667368399
aF-6.1676517356816225
aF-6.557116502443346
aF-7.203743667368399
aF-2.6537018715518004
aF-9.601638940166769
aF-6.557116502443346
aF-9.601638940166769
aF-5.888066873462462
aF-9.601638940166769
aF-9.601638940166769
aF-9.601638940166769
aF-9.601638940166769
aF-6.1676517356816225
aF-5.6698133074424435
aF-9.601638940166769
aF-9.601638940166769
aF-7.203743667368399
aF-9.601638940166769
aF-9.601638940166769
aF-9.601638940166769
aF-9.601638940166769
aF-9.601638940166769
aF-9.601638940166769
aF-6.557116502443346
aF-9.601638940166769
aF-9.601638940166769
aF-6.557116502443346
aF-9.601638940166769
aF-7.203743667368399
aF-9.601638940166769
aF-9.601638940166769
aF-5.6698133074424435
aF-6.1676517356816225
aF-6.1676517356816225
aF-9.601638940166769
aF-9.601638940166769
aF-9.601638940166769
aF-7.203743667368399
aF-6.1676517356816225
aF-9.601638940166769
aF-2.855226811593395
aF-6.557116502443346
aF-5.338959063125454
aF-4.249780806690702
aF-5.090779433649919
aF-4.403141908900944
aF-6.1676517356816225
aF-6.557116502443346
aF-4.98651842332551
aF-7.203743667368399
aF-9.601638940166769
aF-4.249780806690702
aF-9.601638940166769
aF-3.1703078582332904
aF-9.601638940166769
aF-7.203743667368399
aF-9.601638940166769
aF-7.203743667368399
aF-7.203743667368399
aF-4.652879049788601
aF-7.203743667368399
aF-9.601638940166769
aF-9.601638940166769
aF-9.601638940166769
aF-6.557116502443346
aF-9.601638940166769
aF-5.888066873462462
aF-7.203743667368399
aF-9.601638940166769
aF-9.601638940166769
aF-5.090779433649919
aF-7.203743667368399
aF-9.601638940166769
aF-9.601638940166769
aF-9.601638940166769
aF-6.557116502443346
aF-9.601638940166769
aF-9.601638940166769
aF-9.601638940166769
aF-9.601638940166769
aF-7.203743667368399
aF-9.601638940166769
aF-9.601638940166769
aF-4.5843591033518445
aF-5.490765075993458
aF-7.203743667368399
aF-9.601638940166769
aF-5.888066873462462
aF-5.338959063125454
aF-5.6698133074424435
aF-5.090779433649919
aF-9.601638940166769
aF-9.601638940166769
aF-9.601638940166769
aF-9.601638940166769
aF-5.338959063125454
aF-6.557116502443346
aF-5.888066873462462
aF-7.203743667368399
aF-9.601638940166769
aF-9.601638940166769
aF-9.601638940166769
aF-6.557116502443346
aF-9.601638940166769
aF-6.1676517356816225
aF-5.6698133074424435
aF-3.999520119287068
aF-9.601638940166769
aF-5.6698133074424435
aF-9.601638940166769
aF-9.601638940166769
aF-6.557116502443346
aF-9.601638940166769
aF-9.601638940166769
aF-5.6698133074424435
aF-9.601638940166769
aF-9.601638940166769
aF-9.601638940166769
aF-9.601638940166769
aF-9.601638940166769
aF-9.601638940166769
aF-5.6698133074424435
aF-9.601638940166769
aF-9.601638940166769
aF-9.601638940166769
aF-9.601638940166769
aF-9.601638940166769
aF-9.601638940166769
aF-4.98651842332551
aF-5.888066873462462
aF-9.601638940166769
aF-9.601638940166769
aF-6.557116502443346
aF-4.349365512120139
aF-4.076186001034985
aF-5.6698133074424435
aF-3.8301978170367534
aF-4.5843591033518445
aF-5.6698133074424435
aF-7.203743667368399
aF-9.601638940166769
aF-3.9283156729952764
aF-3.3458888984134023
aF-7.203743667368399
aF-4.116842006676114
aF-4.652879049788601
aF-6.1676517356816225
aF-6.557116502443346
aF-9.601638940166769
aF-4.349365512120139
aF-2.7981336825584315
aF-9.601638940166769
aF-9.601638940166769
aF-9.601638940166769
aF-9.601638940166769
aF-7.203743667368399
aF-4.349365512120139
aF-3.9283156729952764
aF-9.601638940166769
aF-3.0634991163990994
aF-4.249780806690702
aF-6.1676517356816225
aF-5.6698133074424435
aF-9.601638940166769
aF-5.6698133074424435
aF-7.203743667368399
aF-3.8945286754178934
aF-5.2071897854943305
aF-9.601638940166769
aF-9.601638940166769
aF-3.1865419809951736
aF-9.601638940166769
aF-5.888066873462462
aF-6.557116502443346
aF-9.601638940166769
aF-7.203743667368399
aF-5.6698133074424435
aF-9.601638940166769
aF-6.557116502443346
aF-9.601638940166769
aF-5.2071897854943305
aF-6.1676517356816225
aF-3.2030440056315617
aF-3.4901716006640906
aF-5.490765075993458
aF-7.203743667368399
aF-4.805848394570028
aF-6.557116502443346
aF-9.601638940166769
aF-9.601638940166769
aF-9.601638940166769
aF-9.601638940166769
aF-3.446780846150351
aF-9.601638940166769
aF-4.520234575182306
aF-6.557116502443346
aF-5.490765075993458
aF-6.1676517356816225
aF-9.601638940166769
aF-3.4051948123722484
aF-9.601638940166769
aF-5.090779433649919
aF-5.6698133074424435
aF-5.888066873462462
aF-9.601638940166769
aF-7.203743667368399
aF-9.601638940166769
aF-9.601638940166769
aF-4.520234575182306
aF-9.601638940166769
aF-9.601638940166769
aF-5.2071897854943305
aF-7.203743667368399
aF-9.601638940166769
aF-7.203743667368399
aF-9.601638940166769
aF-9.601638940166769
aF-5.490765075993458
aF-9.601638940166769
aF-9.601638940166769
aF-9.601638940166769
aF-9.601638940166769
aF-9.601638940166769
aF-9.601638940166769
aF-9.601638940166769
aF-7.203743667368399
aF-9.601638940166769
aF-4.1592212296449755
aF-7.203743667368399
aF-4.805848394570028
aF-9.601638940166769
aF-9.601638940166769
aF-9.601638940166769
aF-4.459975383664109
aF-6.557116502443346
aF-9.601638940166769
aF-3.365269349963065
aF-9.601638940166769
aF-5.490765075993458
aF-9.601638940166769
aF-9.601638940166769
aF-3.3268769189248304
aF-5.888066873462462
aF-9.601638940166769
aF-5.888066873462462
aF-9.601638940166769
aF-4.116842006676114
aF-9.601638940166769
aF-6.557116502443346
aF-9.601638940166769
aF-4.98651842332551
aF-9.601638940166769
aF-9.601638940166769
aF-9.601638940166769
aF-9.601638940166769
aF-9.601638940166769
aF-9.601638940166769
aF-9.601638940166769
aF-9.601638940166769
aF-6.557116502443346
aF-9.601638940166769
aF-9.601638940166769
aF-5.888066873462462
aF-5.2071897854943305
aF-9.601638940166769
aF-9.601638940166769
aF-5.888066873462462
aF-6.557116502443346
aF-6.557116502443346
aF-6.557116502443346
aF-9.601638940166769
aF-7.203743667368399
aF-9.601638940166769
aF-5.490765075993458
aF-7.203743667368399
aF-9.601638940166769
aF-5.6698133074424435
aF-7.203743667368399
aF-9.601638940166769
aF-7.203743667368399
aF-9.601638940166769
aF-7.203743667368399
aF-6.557116502443346
aF-3.2542497305107587
aF-4.459975383664109
aF-5.888066873462462
aF-5.6698133074424435
aF-9.601638940166769
aF-9.601638940166769
aF-9.601638940166769
aF-9.601638940166769
aF-5.6698133074424435
aF-5.490765075993458
aF-9.601638940166769
aF-9.601638940166769
aF-6.557116502443346
aF-9.601638940166769
aF-2.570781464050649
aF-9.601638940166769
aF-6.557116502443346
aF-6.1676517356816225
aF-3.861846027987535
aF-9.601638940166769
aF-7.203743667368399
aF-5.888066873462462
aF-9.601638940166769
aF-4.98651842332551
aF-9.601638940166769
aF-5.888066873462462
aF-9.601638940166769
aF-9.601638940166769
aF-6.557116502443346
aF-9.601638940166769
aF-9.601638940166769
aF-4.726441616965618
aF-9.601638940166769
aF-9.601638940166769
aF-7.203743667368399
aF-9.601638940166769
aF-9.601638940166769
aF-9.601638940166769
aF-7.203743667368399
aF-6.1676517356816225
aF-7.203743667368399
aF-9.601638940166769
aF-9.601638940166769
aF-4.459975383664109
aF-5.6698133074424435
aF-9.601638940166769
aF-7.203743667368399
aF-9.601638940166769
aF-6.1676517356816225
aF-4.076186001034985
aF-4.203476238649016
aF-4.037118532844076
aF-7.203743667368399
aF-3.1865419809951736
aF-6.557116502443346
aF-9.601638940166769
aF-5.2071897854943305
aF-9.601638940166769
aF-5.338959063125454
aF-6.1676517356816225
aF-6.557116502443346
aF-9.601638940166769
aF-9.601638940166769
aF-7.203743667368399
aF-9.601638940166769
aF-7.203743667368399
aF-7.203743667368399
aF-9.601638940166769
aF-6.557116502443346
aF-9.601638940166769
aF-9.601638940166769
aF-6.557116502443346
aF-5.888066873462462
aF-9.601638940166769
aF-5.888066873462462
aF-5.888066873462462
aF-9.601638940166769
aF-9.601638940166769
aF-9.601638940166769
aF-9.601638940166769
aF-6.557116502443346
aF-4.726441616965618
aF-9.601638940166769
aF-5.338959063125454
aF-4.403141908900944
aF-5.6698133074424435
aF-9.601638940166769
aF-6.557116502443346
aF-6.557116502443346
aF-6.557116502443346
aF-9.601638940166769
aF-7.203743667368399
aF-4.98651842332551
aF-7.203743667368399
aF-5.490765075993458
aF-5.338959063125454
aF-9.601638940166769
aF-4.98651842332551
aF-7.203743667368399
aF-9.601638940166769
aF-7.203743667368399
aF-9.601638940166769
aF-9.601638940166769
aF-9.601638940166769
aF-6.557116502443346
aF-9.601638940166769
aF-5.888066873462462
aF-9.601638940166769
aF-9.601638940166769
aF-9.601638940166769
aF-6.557116502443346
aF-9.601638940166769
aF-9.601638940166769
aF-5.6698133074424435
aF-4.116842006676114
aF-4.459975383664109
aF-5.888066873462462
aF-9.601638940166769
aF-9.601638940166769
aF-9.601638940166769
aF-9.601638940166769
aF-6.1676517356816225
aF-5.490765075993458
aF-7.203743667368399
aF-9.601638940166769
aF-7.203743667368399
aF-5.490765075993458
aF-5.6698133074424435
aF-9.601638940166769
aF-5.888066873462462
aF-9.601638940166769
aF-6.1676517356816225
aF-9.601638940166769
aF-9.601638940166769
aF-4.892108738854435
aF-7.203743667368399
aF-6.1676517356816225
aF-9.601638940166769
aF-5.490765075993458
aF-3.5590061064843876
aF-5.338959063125454
aF-4.037118532844076
aF-6.557116502443346
aF-5.490765075993458
aF-9.601638940166769
aF-5.2071897854943305
aF-6.1676517356816225
aF-7.203743667368399
aF-5.6698133074424435
aF-5.338959063125454
aF-3.425771670061008
aF-6.1676517356816225
aF-7.203743667368399
aF-9.601638940166769
aF-7.203743667368399
aF-9.601638940166769
aF-7.203743667368399
aF-9.601638940166769
aF-6.557116502443346
aF-7.203743667368399
aF-4.403141908900944
aF-9.601638940166769
aF-9.601638940166769
aF-6.1676517356816225
aF-7.203743667368399
aF-3.5355308500630214
aF-6.557116502443346
aF-7.203743667368399
aF-9.601638940166769
aF-6.557116502443346
aF-6.557116502443346
aF-5.888066873462462
aF-9.601638940166769
aF-9.601638940166769
aF-5.2071897854943305
aF-7.203743667368399
aF-9.601638940166769
aF-6.557116502443346
aF-9.601638940166769
aF-9.601638940166769
aF-4.98651842332551
aF-6.557116502443346
aF-5.2071897854943305
aF-9.601638940166769
aF-5.2071897854943305
aF-6.557116502443346
aF-9.601638940166769
aF-5.888066873462462
aF-6.1676517356816225
aF-9.601638940166769
aF-5.6698133074424435
aF-5.338959063125454
aF-5.888066873462462
aF-9.601638940166769
aF-9.601638940166769
aF-9.601638940166769
aF-7.203743667368399
aF-2.1167086568771074
aF-9.601638940166769
aF-5.888066873462462
aF-9.601638940166769
aF-2.0410377773982122
aF-5.090779433649919
aF-7.203743667368399
aF-9.601638940166769
aF-5.2071897854943305
aF-5.888066873462462
aF-7.203743667368399
aF-9.601638940166769
aF-9.601638940166769
aF-7.203743667368399
aF-9.601638940166769
aF-6.1676517356816225
aF-9.601638940166769
aF-4.892108738854435
aF-6.1676517356816225
aF-9.601638940166769
aF-9.601638940166769
aF-9.601638940166769
aF-9.601638940166769
aF-9.601638940166769
aF-4.459975383664109
aF-4.98651842332551
aF-9.601638940166769
aF-9.601638940166769
aF-4.892108738854435
aF-5.2071897854943305
aF-9.601638940166769
aF-9.601638940166769
aF-9.601638940166769
aF-9.601638940166769
aF-9.601638940166769
aF-9.601638940166769
aF-9.601638940166769
aF-9.601638940166769
aF-5.090779433649919
aF-4.459975383664109
aF-9.601638940166769
aF-5.6698133074424435
aF-6.557116502443346
aF-6.557116502443346
aF-9.601638940166769
aF-6.557116502443346
aF-7.203743667368399
aF-7.203743667368399
aF-9.601638940166769
aF-6.557116502443346
aF-9.601638940166769
aF-4.298334032107693
aF-5.338959063125454
aF-7.203743667368399
aF-5.6698133074424435
aF-6.557116502443346
aF-7.203743667368399
aF-4.037118532844076
aF-9.601638940166769
aF-5.2071897854943305
aF-9.601638940166769
aF-3.4682408971701206
aF-9.601638940166769
aF-5.888066873462462
aF-5.490765075993458
aF-9.601638940166769
aF-9.601638940166769
aF-9.601638940166769
aF-9.601638940166769
aF-5.2071897854943305
aF-5.2071897854943305
aF-5.6698133074424435
aF-9.601638940166769
aF-9.601638940166769
aF-7.203743667368399
aF-6.1676517356816225
aF-4.520234575182306
aF-9.601638940166769
aF-6.1676517356816225
aF-9.601638940166769
aF-5.490765075993458
aF-7.203743667368399
aF-7.203743667368399
aF-6.1676517356816225
aF-6.1676517356816225
aF-5.338959063125454
aF-7.203743667368399
aF-9.601638940166769
aF-7.203743667368399
aF-9.601638940166769
aF-9.601638940166769
aF-6.1676517356816225
aF-9.601638940166769
aF-9.601638940166769
aF-9.601638940166769
aF-7.203743667368399
aF-9.601638940166769
aF-6.1676517356816225
aF-5.490765075993458
aF-6.1676517356816225
aF-5.090779433649919
aF-5.490765075993458
aF-4.5843591033518445
aF-5.6698133074424435
aF-9.601638940166769
aF-5.2071897854943305
aF-9.601638940166769
aF-6.557116502443346
aF-6.557116502443346
aF-7.203743667368399
aF-9.601638940166769
aF-9.601638940166769
aF-9.601638940166769
aF-9.601638940166769
aF-9.601638940166769
aF-9.601638940166769
aF-7.203743667368399
aF-4.1592212296449755
aF-4.1592212296449755
aF-1.185150452872164
aF-9.601638940166769
aF-4.98651842332551
aF-9.601638940166769
aF-9.601638940166769
aF-4.203476238649016
aF-9.601638940166769
aF-9.601638940166769
aF-9.601638940166769
aF-4.298334032107693
aF-9.601638940166769
aF-6.1676517356816225
aF-3.999520119287068
aF-6.1676517356816225
aF-6.1676517356816225
aF-9.601638940166769
aF-9.601638940166769
aF-9.601638940166769
aF-7.203743667368399
aF-9.601638940166769
aF-9.601638940166769
aF-6.557116502443346
aF-3.658839565040068
aF-6.557116502443346
aF-9.601638940166769
aF-9.601638940166769
aF-6.557116502443346
aF-9.601638940166769
aF-9.601638940166769
aF-9.601638940166769
aF-9.601638940166769
aF-9.601638940166769
aF-9.601638940166769
aF-9.601638940166769
aF-6.1676517356816225
aF-9.601638940166769
aF-7.203743667368399
aF-6.1676517356816225
aF-1.5149210198628638
aF-3.154333077625556
aF-4.520234575182306
aF-4.805848394570028
aF-5.090779433649919
aF-5.490765075993458
aF-9.601638940166769
aF-6.557116502443346
aF-7.203743667368399
aF-6.557116502443346
aF-9.601638940166769
aF-9.601638940166769
aF-4.298334032107693
aF-9.601638940166769
aF-5.490765075993458
aF-9.601638940166769
aF-6.1676517356816225
aF-6.557116502443346
aF-5.490765075993458
aF-4.892108738854435
aF-4.805848394570028
aF-7.203743667368399
aF-5.338959063125454
aF-7.203743667368399
aF-6.557116502443346
aF-5.338959063125454
aF-9.601638940166769
aF-9.601638940166769
aF-9.601638940166769
aF-6.557116502443346
aF-9.601638940166769
aF-7.203743667368399
aF-6.1676517356816225
aF-4.892108738854435
aF-6.557116502443346
aF-5.6698133074424435
aF-9.601638940166769
aF-9.601638940166769
aF-9.601638940166769
aF-9.601638940166769
aF-9.601638940166769
aF-5.490765075993458
aF-5.888066873462462
aF-5.090779433649919
aF-7.203743667368399
aF-4.5843591033518445
aF-6.557116502443346
aF-9.601638940166769
aF-4.652879049788601
aF-7.203743667368399
aF-6.557116502443346
aF-9.601638940166769
aF-6.1676517356816225
aF-9.601638940166769
aF-6.1676517356816225
aF-9.601638940166769
aF-5.6698133074424435
aF-7.203743667368399
aF-6.557116502443346
aF-9.601638940166769
aF-5.6698133074424435
aF-9.601638940166769
aF-9.601638940166769
aF-9.601638940166769
aF-9.601638940166769
aF-6.1676517356816225
aF-6.1676517356816225
aF-6.1676517356816225
aF-9.601638940166769
aF-9.601638940166769
aF-6.557116502443346
aF-7.203743667368399
aF-5.490765075993458
aF-5.6698133074424435
aF-9.601638940166769
aF-7.203743667368399
aF-7.203743667368399
aF-4.349365512120139
aF-9.601638940166769
aF-7.203743667368399
aF-4.298334032107693
aF-5.490765075993458
aF-7.203743667368399
aF-4.892108738854435
aF-6.557116502443346
aF-4.892108738854435
aF-4.298334032107693
aF-2.941063790327083
aF-9.601638940166769
aF-9.601638940166769
aF-5.888066873462462
aF-6.557116502443346
aF-9.601638940166769
aF-6.557116502443346
aF-6.1676517356816225
aF-2.210840418431093
aF-9.601638940166769
aF-9.601638940166769
aF-9.601638940166769
aF-6.557116502443346
aF-9.601638940166769
aF-7.203743667368399
aF-6.557116502443346
aF-9.601638940166769
aF-9.601638940166769
aF-9.601638940166769
aF-9.601638940166769
aF-9.601638940166769
aF-6.557116502443346
aF-6.557116502443346
aF-6.557116502443346
aF-5.2071897854943305
aF-7.203743667368399
aF-6.557116502443346
aF-5.490765075993458
aF-7.203743667368399
aF-9.601638940166769
aF-9.601638940166769
aF-5.888066873462462
aF-9.601638940166769
aF-9.601638940166769
aF-9.601638940166769
aF-9.601638940166769
aF-9.601638940166769
aF-4.520234575182306
aF-6.557116502443346
aF-9.601638940166769
aF-9.601638940166769
aF-7.203743667368399
aF-7.203743667368399
aF-7.203743667368399
aF-7.203743667368399
aF-7.203743667368399
aF-3.4901716006640906
aF-4.5843591033518445
aF-6.1676517356816225
aF-9.601638940166769
aF-9.601638940166769
aF-7.203743667368399
aF-7.203743667368399
aF-4.98651842332551
aF-6.557116502443346
aF-4.726441616965618
aF-9.601638940166769
aF-7.203743667368399
aF-5.090779433649919
aF-4.037118532844076
aF-5.090779433649919
aF-9.601638940166769
aF-6.557116502443346
aF-9.601638940166769
aF-9.601638940166769
aF-6.557116502443346
aF-6.557116502443346
aF-9.601638940166769
aF-6.557116502443346
aF-7.203743667368399
aF-9.601638940166769
aF-7.203743667368399
aF-9.601638940166769
aF-4.805848394570028
aF-9.601638940166769
aF-5.2071897854943305
aF-9.601638940166769
aF-9.601638940166769
aF-9.601638940166769
aF-4.892108738854435
aF-7.203743667368399
aF-5.490765075993458
aF-5.6698133074424435
aF-9.601638940166769
aF-4.459975383664109
aF-5.338959063125454
aF-5.2071897854943305
aF-9.601638940166769
aF-4.892108738854435
aF-9.601638940166769
aF-9.601638940166769
aF-9.601638940166769
aF-6.1676517356816225
aF-9.601638940166769
aF-7.203743667368399
aF-9.601638940166769
aF-5.490765075993458
aF-9.601638940166769
aF-9.601638940166769
aF-9.601638940166769
aF-6.1676517356816225
aF-3.0780766340172567
aF-7.203743667368399
aF-9.601638940166769
aF-9.601638940166769
aF-4.1592212296449755
aF-5.6698133074424435
aF-4.520234575182306
aF-5.2071897854943305
aF-7.203743667368399
aF-7.203743667368399
aF-7.203743667368399
aF-9.601638940166769
aF-6.557116502443346
aF-2.967005582305083
aF-4.892108738854435
aF-7.203743667368399
aF-4.203476238649016
aF-9.601638940166769
aF-6.1676517356816225
aF-7.203743667368399
aF-9.601638940166769
aF-5.2071897854943305
aF-6.557116502443346
aF-9.601638940166769
aF-6.557116502443346
aF-9.601638940166769
aF-7.203743667368399
aF-2.663354456149809
aF-9.601638940166769
aF-7.203743667368399
aF-6.1676517356816225
aF-9.601638940166769
aF-9.601638940166769
aF-9.601638940166769
aF-6.557116502443346
aF-9.601638940166769
aF-6.1676517356816225
aF-9.601638940166769
aF-9.601638940166769
aF-4.892108738854435
aF-5.2071897854943305
aF-4.203476238649016
aF-3.7127609818338883
aF-4.805848394570028
aF-4.459975383664109
aF-7.203743667368399
aF-9.601638940166769
aF-7.203743667368399
aF-9.601638940166769
aF-9.601638940166769
aF-9.601638940166769
aF-7.203743667368399
aF-5.6698133074424435
aF-6.1676517356816225
aF-4.892108738854435
aF-6.1676517356816225
aF-6.557116502443346
aF-9.601638940166769
aF-7.203743667368399
aF-4.203476238649016
aF-9.601638940166769
aF-4.652879049788601
aF-5.888066873462462
aF-7.203743667368399
aF-9.601638940166769
aF-4.459975383664109
aF-9.601638940166769
aF-9.601638940166769
aF-4.892108738854435
aF-5.490765075993458
aF-9.601638940166769
aF-6.1676517356816225
aF-3.685436877559334
aF-9.601638940166769
aF-9.601638940166769
aF-7.203743667368399
aF-9.601638940166769
aF-7.203743667368399
aF-9.601638940166769
aF-9.601638940166769
aF-9.601638940166769
aF-7.203743667368399
aF-6.557116502443346
aF-7.203743667368399
aF-5.338959063125454
aF-5.888066873462462
aF-7.203743667368399
aF-9.601638940166769
aF-7.203743667368399
aF-5.6698133074424435
aF-7.203743667368399
aF-6.557116502443346
aF-2.597664803444089
aF-3.7408527167009034
aF-6.1676517356816225
aF-3.9632842708330234
aF-7.203743667368399
aF-5.888066873462462
aF-3.8301978170367534
aF-9.601638940166769
aF-9.601638940166769
aF-7.203743667368399
aF-6.557116502443346
aF-5.490765075993458
aF-4.403141908900944
aF-9.601638940166769
aF-5.338959063125454
aF-6.557116502443346
aF-7.203743667368399
aF-5.888066873462462
aF-9.601638940166769
aF-5.490765075993458
aF-9.601638940166769
aF-4.892108738854435
aF-5.6698133074424435
aF-9.601638940166769
aF-4.203476238649016
aF-9.601638940166769
aF-7.203743667368399
aF-9.601638940166769
aF-7.203743667368399
aF-5.6698133074424435
aF-6.557116502443346
aF-9.601638940166769
aF-6.557116502443346
aF-5.6698133074424435
aF-6.557116502443346
aF-7.203743667368399
aF-7.203743667368399
aF-5.6698133074424435
aF-9.601638940166769
aF-9.601638940166769
aF-9.601638940166769
aF-9.601638940166769
aF-5.6698133074424435
aF-5.338959063125454
aF-4.98651842332551
aF-9.601638940166769
aF-7.203743667368399
aF-9.601638940166769
aF-9.601638940166769
aF-5.338959063125454
aF-9.601638940166769
aF-9.601638940166769
aF-9.601638940166769
aF-7.203743667368399
aF-9.601638940166769
aF-7.203743667368399
aF-9.601638940166769
aF-9.601638940166769
aF-9.601638940166769
aF-9.601638940166769
aF-4.805848394570028
aF-6.1676517356816225
aF-7.203743667368399
aF-6.1676517356816225
aF-6.1676517356816225
aF-5.6698133074424435
aF-9.601638940166769
aF-7.203743667368399
aF-7.203743667368399
aF-7.203743667368399
aF-9.601638940166769
aF-9.601638940166769
aF-9.601638940166769
aF-6.1676517356816225
aF-5.6698133074424435
aF-7.203743667368399
aF-6.557116502443346
aF-9.601638940166769
aF-9.601638940166769
aF-6.1676517356816225
aF-4.298334032107693
aF-9.601638940166769
aF-7.203743667368399
aF-9.601638940166769
aF-6.557116502443346
aF-9.601638940166769
aF-9.601638940166769
aF-5.888066873462462
aF-5.2071897854943305
aF-9.601638940166769
aF-9.601638940166769
aF-9.601638940166769
aF-9.601638940166769
aF-9.601638940166769
aF-9.601638940166769
aF-6.1676517356816225
aF-6.557116502443346
aF-9.601638940166769
aF-9.601638940166769
aF-9.601638940166769
aF-6.557116502443346
aF-9.601638940166769
aF-9.601638940166769
aF-7.203743667368399
aF-9.601638940166769
aF-5.888066873462462
aF-7.203743667368399
aF-7.203743667368399
aF-7.203743667368399
aF-9.601638940166769
aF-5.490765075993458
aF-6.1676517356816225
aF-9.601638940166769
aF-9.601638940166769
aF-6.1676517356816225
aF-5.2071897854943305
aF-9.601638940166769
aF-7.203743667368399
aF-9.601638940166769
aF-6.557116502443346
aF-9.601638940166769
aF-9.601638940166769
aF-9.601638940166769
aF-7.203743667368399
aF-7.203743667368399
aF-9.601638940166769
aF-5.888066873462462
aF-7.203743667368399
aF-7.203743667368399
aF-9.601638940166769
aF-9.601638940166769
aF-9.601638940166769
aF-9.601638940166769
aF-9.601638940166769
aF-5.6698133074424435
aF-9.601638940166769
aF-9.601638940166769
aF-6.1676517356816225
aF-7.203743667368399
aF-7.203743667368399
aF-9.601638940166769
aF-9.601638940166769
aF-2.91577799309841
aF-9.601638940166769
aF-9.601638940166769
aF-7.203743667368399
aF-9.601638940166769
aF-5.090779433649919
aF-9.601638940166769
aF-3.3082196613202877
aF-9.601638940166769
aF-5.888066873462462
aF-7.203743667368399
aF-9.601638940166769
aF-6.1676517356816225
aF-9.601638940166769
aF-9.601638940166769
aF-9.601638940166769
aF-9.601638940166769
aF-9.601638940166769
aF-4.726441616965618
aF-4.459975383664109
aF-6.557116502443346
aF-2.7981336825584315
aF-5.338959063125454
aF-9.601638940166769
aF-6.557116502443346
aF-6.557116502443346
aF-9.601638940166769
aF-5.888066873462462
aF-6.557116502443346
aF-6.557116502443346
aF-9.601638940166769
aF-9.601638940166769
aF-5.338959063125454
aF-4.805848394570028
aF-5.338959063125454
aF-6.1676517356816225
aF-6.1676517356816225
aF-6.557116502443346
aF-9.601638940166769
aF-9.601638940166769
aF-9.601638940166769
aF-9.601638940166769
aF-9.601638940166769
aF-9.601638940166769
aF-6.557116502443346
aF-9.601638940166769
aF-7.203743667368399
aF-9.601638940166769
aF-9.601638940166769
aF-5.338959063125454
aF-9.601638940166769
aF-9.601638940166769
aF-6.557116502443346
aF-7.203743667368399
aF-9.601638940166769
aF-7.203743667368399
aF-7.203743667368399
aF-7.203743667368399
aF-9.601638940166769
aF-9.601638940166769
aF-9.601638940166769
aF-9.601638940166769
aF-9.601638940166769
aF-5.6698133074424435
aF-9.601638940166769
aF-5.338959063125454
aF-9.601638940166769
aF-9.601638940166769
aF-9.601638940166769
aF-9.601638940166769
aF-9.601638940166769
aF-9.601638940166769
aF-5.490765075993458
aF-9.601638940166769
aF-9.601638940166769
aF-7.203743667368399
aF-7.203743667368399
aF-5.888066873462462
aF-5.2071897854943305
aF-9.601638940166769
aF-9.601638940166769
aF-9.601638940166769
aF-9.601638940166769
aF-9.601638940166769
aF-9.601638940166769
aF-9.601638940166769
aF-9.601638940166769
aF-9.601638940166769
aF-7.203743667368399
aF-9.601638940166769
aF-9.601638940166769
aF-9.601638940166769
aF-7.203743667368399
aF-9.601638940166769
aF-6.557116502443346
aF-9.601638940166769
aF-5.888066873462462
aF-9.601638940166769
aF-5.888066873462462
aF-9.601638940166769
aF-7.203743667368399
aF-9.601638940166769
aF-6.557116502443346
aF-9.601638940166769
aF-9.601638940166769
aF-5.6698133074424435
aF-9.601638940166769
aF-9.601638940166769
aF-9.601638940166769
aF-9.601638940166769
aF-9.601638940166769
aF-5.490765075993458
aF-7.203743667368399
aF-5.6698133074424435
aF-9.601638940166769
aF-9.601638940166769
aF-9.601638940166769
aF-7.203743667368399
aF-9.601638940166769
aF-6.557116502443346
aF-7.203743667368399
aF-9.601638940166769
aF-9.601638940166769
aF-3.4051948123722484
aF-3.5590061064843876
aF-7.203743667368399
aF-9.601638940166769
aF-9.601638940166769
aF-9.601638940166769
aF-9.601638940166769
aF-6.557116502443346
aF-9.601638940166769
aF-9.601638940166769
aF-6.557116502443346
aF-9.601638940166769
aF-9.601638940166769
aF-9.601638940166769
aF-9.601638940166769
aF-9.601638940166769
aF-9.601638940166769
aF-6.1676517356816225
aF-6.1676517356816225
aF-6.557116502443346
aF-9.601638940166769
aF-7.203743667368399
aF-9.601638940166769
aF-9.601638940166769
aF-7.203743667368399
aF-9.601638940166769
aF-9.601638940166769
aF-9.601638940166769
aF-9.601638940166769
aF-9.601638940166769
aF-9.601638940166769
aF-9.601638940166769
aF-5.338959063125454
aF-9.601638940166769
aF-9.601638940166769
aF-9.601638940166769
aF-7.203743667368399
aF-5.490765075993458
aF-7.203743667368399
aF-6.557116502443346
aF-9.601638940166769
aF-5.338959063125454
aF-9.601638940166769
aF-9.601638940166769
aF-9.601638940166769
aF-9.601638940166769
aF-9.601638940166769
aF-9.601638940166769
aF-9.601638940166769
aF-9.601638940166769
aF-9.601638940166769
aF-9.601638940166769
aF-9.601638940166769
aF-9.601638940166769
aF-9.601638940166769
aF-9.601638940166769
aF-9.601638940166769
aF-5.888066873462462
aF-9.601638940166769
aF-9.601638940166769
aF-9.601638940166769
aF-9.601638940166769
aF-9.601638940166769
aF-9.601638940166769
aF-9.601638940166769
aF-7.203743667368399
aF-9.601638940166769
aF-9.601638940166769
aF-9.601638940166769
aF-9.601638940166769
aF-3.861846027987535
aF-4.892108738854435
aF-6.557116502443346
aF-9.601638940166769
aF-9.601638940166769
aF-6.557116502443346
aF-7.203743667368399
aF-6.1676517356816225
aF-7.203743667368399
aF-9.601638940166769
aF-9.601638940166769
aF-9.601638940166769
aF-9.601638940166769
aF-9.601638940166769
aF-7.203743667368399
aF-9.601638940166769
aF-6.557116502443346
aF-9.601638940166769
aF-4.652879049788601
aF-7.203743667368399
aF-7.203743667368399
aF-6.1676517356816225
aF-9.601638940166769
aF-9.601638940166769
aF-4.98651842332551
aF-9.601638940166769
aF-9.601638940166769
aF-9.601638940166769
aF-9.601638940166769
aF-9.601638940166769
aF-9.601638940166769
aF-9.601638940166769
aF-9.601638940166769
aF-6.557116502443346
aF-9.601638940166769
aF-9.601638940166769
aF-9.601638940166769
aF-9.601638940166769
aF-9.601638940166769
aF-9.601638940166769
aF-9.601638940166769
aF-7.203743667368399
aF-5.6698133074424435
aF-9.601638940166769
aF-9.601638940166769
aF-9.601638940166769
aF-9.601638940166769
aF-9.601638940166769
aF-6.557116502443346
aF-6.557116502443346
aF-9.601638940166769
aF-5.2071897854943305
aF-6.557116502443346
aF-6.1676517356816225
aF-7.203743667368399
aF-9.601638940166769
aF-9.601638940166769
aF-9.601638940166769
aF-9.601638940166769
aF-9.601638940166769
aF-7.203743667368399
aF-9.601638940166769
aF-9.601638940166769
aF-6.557116502443346
aF-9.601638940166769
aF-7.203743667368399
aF-9.601638940166769
aF-9.601638940166769
aF-9.601638940166769
aF-9.601638940166769
aF-9.601638940166769
aF-9.601638940166769
aF-9.601638940166769
aF-6.1676517356816225
aF-5.338959063125454
aF-7.203743667368399
aF-5.888066873462462
aF-7.203743667368399
aF-4.98651842332551
aF-7.203743667368399
aF-9.601638940166769
aF-7.203743667368399
aF-7.203743667368399
aF-9.601638940166769
aF-9.601638940166769
aF-4.805848394570028
aF-6.1676517356816225
aF-4.892108738854435
aF-6.557116502443346
aF-5.490765075993458
aF-6.1676517356816225
aF-9.601638940166769
aF-6.557116502443346
aF-9.601638940166769
aF-9.601638940166769
aF-9.601638940166769
aF-9.601638940166769
aF-4.5843591033518445
aF-9.601638940166769
aF-9.601638940166769
aF-5.490765075993458
aF-9.601638940166769
aF-7.203743667368399
aF-7.203743667368399
aF-9.601638940166769
aF-9.601638940166769
aF-9.601638940166769
aF-9.601638940166769
aF-9.601638940166769
aF-9.601638940166769
aF-9.601638940166769
aF-9.601638940166769
aF-9.601638940166769
aF-7.203743667368399
aF-4.403141908900944
aF-5.2071897854943305
aF-7.203743667368399
aF-5.6698133074424435
aF-9.601638940166769
aF-9.601638940166769
aF-4.403141908900944
aF-9.601638940166769
aF-9.601638940166769
aF-9.601638940166769
aF-9.601638940166769
aF-6.557116502443346
aF-9.601638940166769
aF-9.601638940166769
aF-9.601638940166769
aF-7.203743667368399
aF-9.601638940166769
aF-9.601638940166769
aF-7.203743667368399
aF-9.601638940166769
aF-6.1676517356816225
aF-5.2071897854943305
aF-7.203743667368399
aF-7.203743667368399
aF-9.601638940166769
aF-5.6698133074424435
aF-9.601638940166769
aF-9.601638940166769
aF-6.1676517356816225
aF-9.601638940166769
aF-6.1676517356816225
aF-9.601638940166769
aF-9.601638940166769
aF-7.203743667368399
aF-6.1676517356816225
aF-3.658839565040068
aF-2.9802332884026344
aF-9.601638940166769
aF-3.658839565040068
aF-2.105541594990813
aF-4.805848394570028
aF-7.203743667368399
aF-7.203743667368399
aF-7.203743667368399
aF-6.557116502443346
aF-6.1676517356816225
aF-9.601638940166769
aF-7.203743667368399
aF-5.888066873462462
aF-5.2071897854943305
aF-7.203743667368399
aF-5.6698133074424435
aF-9.601638940166769
aF-7.203743667368399
aF-6.557116502443346
aF-9.601638940166769
aF-5.6698133074424435
aF-9.601638940166769
aF-9.601638940166769
aF-9.601638940166769
aF-9.601638940166769
aF-4.652879049788601
aF-5.090779433649919
aF-3.658839565040068
aF-7.203743667368399
aF-9.601638940166769
aF-6.1676517356816225
aF-5.888066873462462
aF-9.601638940166769
aF-9.601638940166769
aF-7.203743667368399
aF-9.601638940166769
aF-9.601638940166769
aF-9.601638940166769
aF-9.601638940166769
aF-7.203743667368399
aF-9.601638940166769
aF-7.203743667368399
aF-9.601638940166769
aF-9.601638940166769
aF-4.076186001034985
aF-9.601638940166769
aF-9.601638940166769
aF-9.601638940166769
aF-7.203743667368399
aF-7.203743667368399
aF-7.203743667368399
aF-5.888066873462462
aF-9.601638940166769
aF-9.601638940166769
aF-5.338959063125454
aF-9.601638940166769
aF-7.203743667368399
aF-9.601638940166769
aF-7.203743667368399
aF-7.203743667368399
aF-9.601638940166769
aF-7.203743667368399
aF-9.601638940166769
aF-9.601638940166769
aF-9.601638940166769
aF-7.203743667368399
aF-9.601638940166769
aF-9.601638940166769
aF-9.601638940166769
aF-9.601638940166769
aF-4.1592212296449755
aF-9.601638940166769
aF-4.726441616965618
aF-7.203743667368399
aF-4.403141908900944
aF-9.601638940166769
aF-6.557116502443346
aF-9.601638940166769
aF-7.203743667368399
aF-9.601638940166769
aF-9.601638940166769
aF-9.601638940166769
aF-9.601638940166769
aF-9.601638940166769
aF-9.601638940166769
aF-9.601638940166769
aF-9.601638940166769
aF-9.601638940166769
aF-9.601638940166769
aF-7.203743667368399
aF-9.601638940166769
aF-9.601638940166769
aF-5.490765075993458
aF-6.1676517356816225
aF-7.203743667368399
aF-9.601638940166769
aF-6.557116502443346
aF-9.601638940166769
aF-5.490765075993458
aF-9.601638940166769
aF-9.601638940166769
aF-9.601638940166769
aF-6.557116502443346
aF-9.601638940166769
aF-9.601638940166769
aF-9.601638940166769
aF-9.601638940166769
aF-9.601638940166769
aF-9.601638940166769
aF-9.601638940166769
aF-9.601638940166769
aF-7.203743667368399
aF-4.520234575182306
aF-6.1676517356816225
aF-9.601638940166769
aF-7.203743667368399
aF-4.98651842332551
aF-5.2071897854943305
aF-4.298334032107693
aF-9.601638940166769
aF-3.512594064719923
aF-9.601638940166769
aF-6.557116502443346
aF-9.601638940166769
aF-9.601638940166769
aF-5.888066873462462
aF-9.601638940166769
aF-5.888066873462462
aF-4.805848394570028
aF-9.601638940166769
aF-9.601638940166769
aF-5.6698133074424435
aF-4.805848394570028
aF-9.601638940166769
aF-9.601638940166769
aF-5.090779433649919
aF-9.601638940166769
aF-9.601638940166769
aF-9.601638940166769
aF-9.601638940166769
aF-9.601638940166769
aF-7.203743667368399
aF-4.892108738854435
aF-5.490765075993458
aF-9.601638940166769
aF-9.601638940166769
aF-5.888066873462462
aF-9.601638940166769
aF-7.203743667368399
aF-3.8945286754178934
aF-5.888066873462462
aF-9.601638940166769
aF-5.888066873462462
aF-7.203743667368399
aF-5.490765075993458
aF-3.658839565040068
aF-6.1676517356816225
aF-7.203743667368399
aF-6.1676517356816225
aF-9.601638940166769
aF-9.601638940166769
aF-9.601638940166769
aF-9.601638940166769
aF-9.601638940166769
aF-9.601638940166769
aF-9.601638940166769
aF-9.601638940166769
aF-9.601638940166769
aF-7.203743667368399
aF-9.601638940166769
aF-5.490765075993458
aF-9.601638940166769
aF-7.203743667368399
aF-6.557116502443346
aF-9.601638940166769
aF-9.601638940166769
aF-9.601638940166769
aF-4.98651842332551
aF-6.557116502443346
aF-9.601638940166769
aF-7.203743667368399
aF-3.0072254804169907
aF-3.1703078582332904
aF-3.219822922760671
aF-3.658839565040068
aF-9.601638940166769
aF-4.1592212296449755
aF-9.601638940166769
aF-5.490765075993458
aF-5.888066873462462
aF-9.601638940166769
aF-5.090779433649919
aF-4.98651842332551
aF-9.601638940166769
aF-6.557116502443346
aF-9.601638940166769
aF-6.1676517356816225
aF-4.652879049788601
aF-2.9539505666034396
aF-7.203743667368399
aF-5.888066873462462
aF-9.601638940166769
aF-7.203743667368399
aF-4.403141908900944
aF-5.490765075993458
aF-4.037118532844076
aF-6.1676517356816225
aF-6.1676517356816225
aF-9.601638940166769
aF-7.203743667368399
aF-9.601638940166769
aF-9.601638940166769
aF-9.601638940166769
aF-9.601638940166769
aF-9.601638940166769
aF-4.98651842332551
aF-9.601638940166769
aF-7.203743667368399
aF-7.203743667368399
aF-9.601638940166769
aF-6.557116502443346
aF-9.601638940166769
aF-9.601638940166769
aF-9.601638940166769
aF-9.601638940166769
aF-7.203743667368399
aF-7.203743667368399
aF-9.601638940166769
aF-5.888066873462462
aF-9.601638940166769
aF-9.601638940166769
aF-6.557116502443346
aF-9.601638940166769
aF-9.601638940166769
aF-7.203743667368399
aF-9.601638940166769
aF-4.892108738854435
aF-6.1676517356816225
aF-9.601638940166769
aF-5.888066873462462
aF-9.601638940166769
aF-9.601638940166769
aF-9.601638940166769
aF-9.601638940166769
aF-9.601638940166769
aF-9.601638940166769
aF-9.601638940166769
aF-9.601638940166769
aF-6.557116502443346
aF-9.601638940166769
aF-5.090779433649919
aF-2.744124877621379
aF-3.365269349963065
aF-2.6829437211462976
aF-6.557116502443346
aF-9.601638940166769
aF-9.601638940166769
aF-7.203743667368399
aF-9.601638940166769
aF-9.601638940166769
aF-4.652879049788601
aF-9.601638940166769
aF-9.601638940166769
aF-7.203743667368399
aF-7.203743667368399
aF-3.2899041310138544
aF-9.601638940166769
aF-6.557116502443346
aF-9.601638940166769
aF-9.601638940166769
aF-4.459975383664109
aF-9.601638940166769
aF-4.98651842332551
aF-9.601638940166769
aF-9.601638940166769
aF-9.601638940166769
aF-5.2071897854943305
aF-7.203743667368399
aF-9.601638940166769
aF-9.601638940166769
aF-5.888066873462462
aF-9.601638940166769
aF-9.601638940166769
aF-9.601638940166769
aF-9.601638940166769
aF-9.601638940166769
aF-5.6698133074424435
aF-7.203743667368399
aF-9.601638940166769
aF-5.6698133074424435
aF-5.338959063125454
aF-7.203743667368399
aF-9.601638940166769
aF-9.601638940166769
aF-4.403141908900944
aF-7.203743667368399
aF-9.601638940166769
aF-3.4051948123722484
aF-6.557116502443346
aF-5.490765075993458
aF-9.601638940166769
aF-5.090779433649919
aF-5.6698133074424435
aF-3.8301978170367534
aF-0.9514895215019062
aF-3.271918034644073
aF-3.685436877559334
aF-5.090779433649919
aF-5.6698133074424435
aF-9.601638940166769
aF-6.1676517356816225
aF-3.7127609818338883
aF-5.090779433649919
aF-6.557116502443346
aF-9.601638940166769
aF-7.203743667368399
aF-9.601638940166769
aF-6.1676517356816225
aF-4.652879049788601
aF-9.601638940166769
aF-9.601638940166769
aF-9.601638940166769
aF-5.888066873462462
aF-5.888066873462462
aF-9.601638940166769
aF-6.1676517356816225
aF-9.601638940166769
aF-5.338959063125454
aF-4.5843591033518445
aF-5.490765075993458
aF-3.9283156729952764
aF-6.557116502443346
aF-7.203743667368399
aF-9.601638940166769
aF-6.1676517356816225
aF-6.557116502443346
aF-5.6698133074424435
aF-7.203743667368399
aF-7.203743667368399
aF-9.601638940166769
aF-3.8945286754178934
aF-7.203743667368399
aF-9.601638940166769
aF-3.861846027987535
aF-4.892108738854435
aF-5.490765075993458
aF-3.7697564628832523
aF-4.076186001034985
aF-4.298334032107693
aF-7.203743667368399
aF-2.5796625170946093
aF-3.999520119287068
aF-9.601638940166769
aF-5.888066873462462
aF-4.249780806690702
aF-6.557116502443346
aF-1.6746753953037907
aF-3.446780846150351
aF-9.601638940166769
aF-9.601638940166769
aF-7.203743667368399
aF-4.037118532844076
aF-3.9632842708330234
aF-3.5590061064843876
aF-3.7697564628832523
aF-9.601638940166769
aF-9.601638940166769
aF-9.601638940166769
aF-9.601638940166769
aF-9.601638940166769
aF-9.601638940166769
aF-6.557116502443346
aF-4.403141908900944
aF-4.98651842332551
aF-6.557116502443346
aF-9.601638940166769
aF-4.249780806690702
aF-9.601638940166769
aF-9.601638940166769
aF-9.601638940166769
aF-4.1592212296449755
aF-5.888066873462462
aF-6.557116502443346
aF-9.601638940166769
aF-9.601638940166769
aF-6.557116502443346
aF-7.203743667368399
aF-6.1676517356816225
aF-7.203743667368399
aF-6.1676517356816225
aF-9.601638940166769
aF-7.203743667368399
aF-6.557116502443346
aF-5.888066873462462
aF-9.601638940166769
aF-5.6698133074424435
aF-4.726441616965618
aF-6.557116502443346
aF-9.601638940166769
aF-9.601638940166769
aF-9.601638940166769
aF-5.888066873462462
aF-9.601638940166769
aF-6.1676517356816225
aF-4.726441616965618
aF-5.6698133074424435
aF-5.6698133074424435
aF-4.349365512120139
aF-7.203743667368399
aF-7.203743667368399
aF-6.557116502443346
aF-9.601638940166769
aF-5.6698133074424435
aF-6.1676517356816225
aF-4.403141908900944
aF-3.658839565040068
aF-4.1592212296449755
aF-9.601638940166769
aF-9.601638940166769
aF-9.601638940166769
aF-3.999520119287068
aF-7.203743667368399
aF-6.557116502443346
aF-7.203743667368399
aF-9.601638940166769
aF-7.203743667368399
aF-9.601638940166769
aF-7.203743667368399
aF-9.601638940166769
aF-9.601638940166769
aF-9.601638940166769
aF-7.203743667368399
aF-5.490765075993458
aF-9.601638940166769
aF-7.203743667368399
aF-6.1676517356816225
aF-9.601638940166769
aF-9.601638940166769
aF-9.601638940166769
aF-9.601638940166769
aF-9.601638940166769
aF-9.601638940166769
aF-7.203743667368399
aF-9.601638940166769
aF-9.601638940166769
aF-7.203743667368399
aF-9.601638940166769
aF-9.601638940166769
aF-6.1676517356816225
aF-6.557116502443346
aF-7.203743667368399
aF-5.338959063125454
aF-7.203743667368399
aF-4.805848394570028
aF-4.805848394570028
aF-9.601638940166769
aF-6.557116502443346
aF-7.203743667368399
aF-5.6698133074424435
aF-9.601638940166769
aF-9.601638940166769
aF-5.2071897854943305
aF-9.601638940166769
aF-9.601638940166769
aF-7.203743667368399
aF-4.652879049788601
aF-5.490765075993458
aF-9.601638940166769
aF-7.203743667368399
aF-9.601638940166769
aF-7.203743667368399
aF-9.601638940166769
aF-3.5590061064843876
aF-4.652879049788601
aF-4.98651842332551
aF-3.425771670061008
aF-7.203743667368399
aF-5.090779433649919
aF-5.338959063125454
aF-9.601638940166769
aF-7.203743667368399
aF-4.037118532844076
aF-9.601638940166769
aF-4.892108738854435
aF-9.601638940166769
aF-9.601638940166769
aF-6.557116502443346
aF-6.557116502443346
aF-5.338959063125454
aF-6.1676517356816225
aF-9.601638940166769
aF-7.203743667368399
aF-9.601638940166769
aF-9.601638940166769
aF-4.459975383664109
aF-7.203743667368399
aF-4.892108738854435
aF-4.726441616965618
aF-9.601638940166769
aF-7.203743667368399
aF-2.9283409723991154
aF-4.203476238649016
aF-4.892108738854435
aF-7.203743667368399
aF-9.601638940166769
aF-9.601638940166769
aF-6.1676517356816225
aF-7.203743667368399
aF-6.1676517356816225
aF-6.1676517356816225
aF-5.6698133074424435
aF-6.1676517356816225
aF-5.090779433649919
aF-9.601638940166769
aF-9.601638940166769
aF-7.203743667368399
aF-9.601638940166769
aF-6.1676517356816225
aF-7.203743667368399
aF-6.557116502443346
aF-7.203743667368399
aF-4.520234575182306
aF-9.601638940166769
aF-4.298334032107693
aF-5.6698133074424435
aF-7.203743667368399
aF-9.601638940166769
aF-6.1676517356816225
aF-5.6698133074424435
aF-7.203743667368399
aF-7.203743667368399
aF-9.601638940166769
aF-6.557116502443346
aF-4.652879049788601
aF-9.601638940166769
aF-6.1676517356816225
aF-5.490765075993458
aF-7.203743667368399
aF-5.6698133074424435
aF-6.557116502443346
aF-5.6698133074424435
aF-5.490765075993458
aF-9.601638940166769
aF-9.601638940166769
aF-9.601638940166769
aF-9.601638940166769
aF-9.601638940166769
aF-9.601638940166769
aF-9.601638940166769
aF-9.601638940166769
aF-9.601638940166769
aF-9.601638940166769
aF-9.601638940166769
aF-9.601638940166769
aF-9.601638940166769
aF-7.203743667368399
aF-9.601638940166769
aF-6.557116502443346
aF-6.1676517356816225
aF-9.601638940166769
aF-7.203743667368399
aF-7.203743667368399
aF-9.601638940166769
aF-9.601638940166769
aF-7.203743667368399
aF-9.601638940166769
aF-5.2071897854943305
aF-9.601638940166769
aF-6.1676517356816225
aF-6.557116502443346
aF-7.203743667368399
aF-5.2071897854943305
aF-7.203743667368399
aF-9.601638940166769
aF-9.601638940166769
aF-7.203743667368399
aF-9.601638940166769
aF-9.601638940166769
aF-5.090779433649919
aF-9.601638940166769
aF-6.1676517356816225
aF-9.601638940166769
aF-9.601638940166769
aF-9.601638940166769
aF-9.601638940166769
aF-7.203743667368399
aF-7.203743667368399
aF-5.6698133074424435
aF-9.601638940166769
aF-9.601638940166769
aF-9.601638940166769
aF-9.601638940166769
aF-9.601638940166769
aF-9.601638940166769
aF-9.601638940166769
aF-9.601638940166769
aF-9.601638940166769
aF-7.203743667368399
aF-3.6076775128602
aF-4.203476238649016
aF-5.090779433649919
aF-9.601638940166769
aF-6.1676517356816225
aF-4.203476238649016
aF-4.652879049788601
aF-5.6698133074424435
aF-4.892108738854435
aF-9.601638940166769
aF-5.888066873462462
aF-7.203743667368399
aF-7.203743667368399
aF-9.601638940166769
aF-9.601638940166769
aF-9.601638940166769
aF-5.888066873462462
aF-7.203743667368399
aF-5.888066873462462
aF-7.203743667368399
aF-9.601638940166769
aF-5.2071897854943305
aF-5.888066873462462
aF-6.1676517356816225
aF-9.601638940166769
aF-5.6698133074424435
aF-5.888066873462462
aF-9.601638940166769
aF-9.601638940166769
aF-3.1865419809951736
aF-5.6698133074424435
aF-6.557116502443346
aF-9.601638940166769
aF-6.557116502443346
aF-6.1676517356816225
aF-5.888066873462462
aF-7.203743667368399
aF-3.9632842708330234
aF-9.601638940166769
aF-9.601638940166769
aF-5.490765075993458
aF-7.203743667368399
aF-7.203743667368399
aF-9.601638940166769
aF-4.805848394570028
aF-9.601638940166769
aF-9.601638940166769
aF-5.2071897854943305
aF-5.888066873462462
aF-9.601638940166769
aF-9.601638940166769
aF-7.203743667368399
aF-9.601638940166769
aF-9.601638940166769
aF-5.338959063125454
aF-7.203743667368399
aF-9.601638940166769
aF-9.601638940166769
aF-9.601638940166769
aF-9.601638940166769
aF-9.601638940166769
aF-6.557116502443346
aF-5.2071897854943305
aF-7.203743667368399
aF-9.601638940166769
aF-9.601638940166769
aF-9.601638940166769
aF-9.601638940166769
aF-6.557116502443346
aF-9.601638940166769
aF-9.601638940166769
aF-9.601638940166769
aF-9.601638940166769
aF-7.203743667368399
aF-4.892108738854435
aF-2.967005582305083
aF-4.459975383664109
aF-5.2071897854943305
aF-9.601638940166769
aF-6.1676517356816225
aF-9.601638940166769
aF-7.203743667368399
aF-7.203743667368399
aF-3.3458888984134023
aF-5.338959063125454
aF-3.446780846150351
aF-9.601638940166769
aF-5.2071897854943305
aF-9.601638940166769
aF-6.557116502443346
aF-4.298334032107693
aF-9.601638940166769
aF-9.601638940166769
aF-9.601638940166769
aF-6.557116502443346
aF-3.9632842708330234
aF-5.888066873462462
aF-9.601638940166769
aF-9.601638940166769
aF-7.203743667368399
aF-9.601638940166769
aF-9.601638940166769
aF-9.601638940166769
aF-4.805848394570028
aF-9.601638940166769
aF-5.2071897854943305
aF-6.557116502443346
aF-9.601638940166769
aF-4.726441616965618
aF-5.6698133074424435
aF-6.557116502443346
aF-5.490765075993458
aF-9.601638940166769
aF-9.601638940166769
aF-9.601638940166769
aF-4.349365512120139
aF-7.203743667368399
aF-9.601638940166769
aF-5.6698133074424435
aF-5.888066873462462
aF-9.601638940166769
aF-7.203743667368399
aF-5.2071897854943305
aF-9.601638940166769
aF-4.249780806690702
aF-5.6698133074424435
aF-7.203743667368399
aF-9.601638940166769
aF-9.601638940166769
aF-4.805848394570028
aF-9.601638940166769
aF-2.536025576569052
aF-3.385032839081904
aF-7.203743667368399
aF-6.557116502443346
aF-4.652879049788601
aF-9.601638940166769
aF-7.203743667368399
aF-4.203476238649016
aF-5.6698133074424435
aF-7.203743667368399
aF-9.601638940166769
aF-9.601638940166769
aF-9.601638940166769
aF-4.98651842332551
aF-7.203743667368399
aF-5.338959063125454
aF-9.601638940166769
aF-7.203743667368399
aF-9.601638940166769
aF-6.1676517356816225
aF-9.601638940166769
aF-9.601638940166769
aF-7.203743667368399
aF-6.557116502443346
aF-9.601638940166769
aF-6.557116502443346
aF-9.601638940166769
aF-4.249780806690702
aF-5.338959063125454
aF-5.2071897854943305
aF-5.490765075993458
aF-5.6698133074424435
aF-9.601638940166769
aF-9.601638940166769
aF-9.601638940166769
aF-6.1676517356816225
aF-9.601638940166769
aF-7.203743667368399
aF-7.203743667368399
aF-7.203743667368399
aF-6.557116502443346
aF-9.601638940166769
aF-4.652879049788601
aF-7.203743667368399
aF-7.203743667368399
aF-6.1676517356816225
aF-7.203743667368399
aF-7.203743667368399
aF-7.203743667368399
aF-5.090779433649919
aF-4.459975383664109
aF-7.203743667368399
aF-6.1676517356816225
aF-9.601638940166769
aF-6.1676517356816225
aF-5.090779433649919
aF-6.1676517356816225
aF-7.203743667368399
aF-5.888066873462462
aF-7.203743667368399
aF-4.652879049788601
aF-6.557116502443346
aF-5.338959063125454
aF-7.203743667368399
aF-9.601638940166769
aF-6.557116502443346
aF-5.490765075993458
aF-9.601638940166769
aF-9.601638940166769
aF-9.601638940166769
aF-9.601638940166769
aF-9.601638940166769
aF-9.601638940166769
aF-9.601638940166769
aF-9.601638940166769
aF-9.601638940166769
aF-6.1676517356816225
aF-9.601638940166769
aF-9.601638940166769
aF-9.601638940166769
aF-9.601638940166769
aF-3.658839565040068
aF-7.203743667368399
aF-6.557116502443346
aF-6.557116502443346
aF-6.557116502443346
aF-4.116842006676114
aF-9.601638940166769
aF-9.601638940166769
aF-5.6698133074424435
aF-7.203743667368399
aF-7.203743667368399
aF-9.601638940166769
aF-4.652879049788601
aF-9.601638940166769
aF-7.203743667368399
aF-9.601638940166769
aF-4.726441616965618
aF-6.557116502443346
aF-7.203743667368399
aF-9.601638940166769
aF-6.557116502443346
aF-9.601638940166769
aF-9.601638940166769
aF-6.557116502443346
aF-5.490765075993458
aF-7.203743667368399
aF-6.557116502443346
aF-5.490765075993458
aF-6.1676517356816225
aF-6.557116502443346
aF-4.892108738854435
aF-9.601638940166769
aF-9.601638940166769
aF-5.490765075993458
aF-5.6698133074424435
aF-7.203743667368399
aF-9.601638940166769
aF-7.203743667368399
aF-9.601638940166769
aF-5.338959063125454
aF-5.2071897854943305
aF-7.203743667368399
aF-5.888066873462462
aF-6.557116502443346
aF-4.349365512120139
aF-5.490765075993458
aF-9.601638940166769
aF-7.203743667368399
aF-7.203743667368399
aF-5.490765075993458
aF-5.338959063125454
aF-9.601638940166769
aF-6.1676517356816225
aF-7.203743667368399
aF-6.557116502443346
aF-9.601638940166769
aF-9.601638940166769
aF-9.601638940166769
aF-9.601638940166769
aF-9.601638940166769
aF-5.6698133074424435
aF-6.1676517356816225
aF-4.652879049788601
aF-6.1676517356816225
aF-6.557116502443346
aF-9.601638940166769
aF-6.557116502443346
aF-9.601638940166769
aF-4.892108738854435
aF-6.1676517356816225
aF-3.425771670061008
aF-6.557116502443346
aF-9.601638940166769
aF-9.601638940166769
aF-9.601638940166769
aF-9.601638940166769
aF-9.601638940166769
aF-9.601638940166769
aF-7.203743667368399
aF-9.601638940166769
aF-9.601638940166769
aF-7.203743667368399
aF-7.203743667368399
aF-9.601638940166769
aF-9.601638940166769
aF-9.601638940166769
aF-4.726441616965618
aF-7.203743667368399
aF-5.490765075993458
aF-9.601638940166769
aF-5.490765075993458
aF-6.557116502443346
aF-9.601638940166769
aF-9.601638940166769
aF-6.557116502443346
aF-5.888066873462462
aF-6.557116502443346
aF-6.557116502443346
aF-7.203743667368399
aF-9.601638940166769
aF-7.203743667368399
aF-9.601638940166769
aF-9.601638940166769
aF-5.6698133074424435
aF-9.601638940166769
aF-6.557116502443346
aF-6.1676517356816225
aF-9.601638940166769
aF-9.601638940166769
aF-7.203743667368399
aF-7.203743667368399
aF-9.601638940166769
aF-9.601638940166769
aF-9.601638940166769
aF-6.557116502443346
aF-7.203743667368399
aF-9.601638940166769
aF-9.601638940166769
aF-7.203743667368399
aF-9.601638940166769
aF-6.557116502443346
aF-9.601638940166769
aF-9.601638940166769
aF-7.203743667368399
aF-9.601638940166769
aF-9.601638940166769
aF-9.601638940166769
aF-9.601638940166769
aF-5.6698133074424435
aF-6.1676517356816225
aF-5.2071897854943305
aF-5.490765075993458
aF-9.601638940166769
aF-7.203743667368399
aF-5.888066873462462
aF-9.601638940166769
aF-9.601638940166769
aF-3.658839565040068
aF-9.601638940166769
aF-4.892108738854435
aF-9.601638940166769
aF-4.98651842332551
aF-7.203743667368399
aF-9.601638940166769
aF-5.888066873462462
aF-9.601638940166769
aF-5.090779433649919
aF-6.1676517356816225
aF-7.203743667368399
aF-9.601638940166769
aF-7.203743667368399
aF-9.601638940166769
aF-9.601638940166769
aF-9.601638940166769
aF-5.888066873462462
aF-9.601638940166769
aF-7.203743667368399
aF-6.1676517356816225
aF-6.1676517356816225
aF-4.892108738854435
aF-9.601638940166769
aF-6.557116502443346
aF-6.1676517356816225
aF-6.557116502443346
aF-7.203743667368399
aF-4.892108738854435
aF-9.601638940166769
aF-7.203743667368399
aF-9.601638940166769
aF-5.338959063125454
aF-4.98651842332551
aF-5.090779433649919
aF-4.726441616965618
aF-9.601638940166769
aF-5.888066873462462
aF-9.601638940166769
aF-4.203476238649016
aF-9.601638940166769
aF-9.601638940166769
aF-9.601638940166769
aF-7.203743667368399
aF-4.076186001034985
aF-4.726441616965618
aF-7.203743667368399
aF-5.490765075993458
aF-9.601638940166769
aF-4.249780806690702
aF-9.601638940166769
aF-4.98651842332551
aF-4.520234575182306
aF-6.1676517356816225
aF-5.888066873462462
aF-6.1676517356816225
aF-9.601638940166769
aF-9.601638940166769
aF-9.601638940166769
aF-9.601638940166769
aF-6.1676517356816225
aF-4.459975383664109
aF-9.601638940166769
aF-4.726441616965618
aF-9.601638940166769
aF-9.601638940166769
aF-6.1676517356816225
aF-4.98651842332551
aF-7.203743667368399
aF-6.557116502443346
aF-6.1676517356816225
aF-9.601638940166769
aF-9.601638940166769
aF-9.601638940166769
aF-9.601638940166769
aF-9.601638940166769
aF-9.601638940166769
aF-7.203743667368399
aF-5.6698133074424435
aF-9.601638940166769
aF-9.601638940166769
aF-5.888066873462462
aF-9.601638940166769
aF-2.335510160610318
aF-4.1592212296449755
aF-2.7336645311964767
aF-9.601638940166769
aF-9.601638940166769
aF-6.1676517356816225
aF-6.557116502443346
aF-7.203743667368399
aF-7.203743667368399
aF-9.601638940166769
aF-9.601638940166769
aF-9.601638940166769
aF-9.601638940166769
aF-6.557116502443346
aF-6.1676517356816225
aF-9.601638940166769
aF-9.601638940166769
aF-6.557116502443346
aF-5.888066873462462
aF-9.601638940166769
aF-9.601638940166769
aF-6.557116502443346
aF-9.601638940166769
aF-9.601638940166769
aF-9.601638940166769
aF-9.601638940166769
aF-7.203743667368399
aF-6.1676517356816225
aF-5.6698133074424435
aF-6.557116502443346
aF-6.557116502443346
aF-9.601638940166769
aF-7.203743667368399
aF-6.1676517356816225
aF-9.601638940166769
aF-7.203743667368399
aF-5.888066873462462
aF-9.601638940166769
aF-9.601638940166769
aF-9.601638940166769
aF-7.203743667368399
aF-9.601638940166769
aF-9.601638940166769
aF-5.2071897854943305
aF-5.490765075993458
aF-7.203743667368399
aF-6.1676517356816225
aF-6.557116502443346
aF-5.090779433649919
aF-7.203743667368399
aF-9.601638940166769
aF-9.601638940166769
aF-7.203743667368399
aF-6.557116502443346
aF-6.1676517356816225
aF-7.203743667368399
aF-5.090779433649919
aF-6.1676517356816225
aF-6.557116502443346
aF-9.601638940166769
aF-6.1676517356816225
aF-9.601638940166769
aF-5.6698133074424435
aF-9.601638940166769
aF-9.601638940166769
aF-6.1676517356816225
aF-9.601638940166769
aF-9.601638940166769
aF-9.601638940166769
aF-9.601638940166769
aF-4.805848394570028
aF-9.601638940166769
aF-6.1676517356816225
aF-9.601638940166769
aF-5.338959063125454
aF-7.203743667368399
aF-9.601638940166769
aF-6.557116502443346
aF-7.203743667368399
aF-4.037118532844076
aF-5.2071897854943305
aF-4.726441616965618
aF-7.203743667368399
aF-5.338959063125454
aF-9.601638940166769
aF-7.203743667368399
aF-9.601638940166769
aF-3.7697564628832523
aF-9.601638940166769
aF-5.6698133074424435
aF-4.98651842332551
aF-1.6049850647041615
aF-9.601638940166769
aF-6.1676517356816225
aF-7.203743667368399
aF-9.601638940166769
aF-9.601638940166769
aF-7.203743667368399
aF-9.601638940166769
aF-5.2071897854943305
aF-9.601638940166769
aF-4.116842006676114
aF-4.652879049788601
aF-9.601638940166769
aF-5.490765075993458
aF-9.601638940166769
aF-6.557116502443346
aF-6.557116502443346
aF-9.601638940166769
aF-9.601638940166769
aF-9.601638940166769
aF-9.601638940166769
aF-9.601638940166769
aF-5.338959063125454
aF-5.338959063125454
aF-9.601638940166769
aF-9.601638940166769
aF-9.601638940166769
aF-9.601638940166769
aF-9.601638940166769
aF-5.490765075993458
aF-3.4901716006640906
aF-7.203743667368399
aF-9.601638940166769
aF-5.090779433649919
aF-3.1231292979582
aF-7.203743667368399
aF-6.557116502443346
aF-4.249780806690702
aF-5.6698133074424435
aF-9.601638940166769
aF-6.557116502443346
aF-9.601638940166769
aF-5.6698133074424435
aF-2.9033708860513565
aF-5.490765075993458
aF-6.1676517356816225
aF-4.459975383664109
aF-9.601638940166769
aF-6.557116502443346
aF-9.601638940166769
aF-9.601638940166769
aF-9.601638940166769
aF-9.601638940166769
aF-5.6698133074424435
aF-9.601638940166769
aF-4.98651842332551
aF-9.601638940166769
aF-7.203743667368399
aF-4.98651842332551
aF-4.652879049788601
aF-6.557116502443346
aF-5.6698133074424435
aF-9.601638940166769
aF-4.892108738854435
aF-9.601638940166769
aF-6.557116502443346
aF-9.601638940166769
aF-9.601638940166769
aF-6.1676517356816225
aF-5.490765075993458
aF-7.203743667368399
aF-6.557116502443346
aF-7.203743667368399
aF-9.601638940166769
aF-9.601638940166769
aF-6.557116502443346
aF-9.601638940166769
aF-6.1676517356816225
aF-9.601638940166769
aF-6.1676517356816225
aF-7.203743667368399
aF-9.601638940166769
aF-9.601638940166769
aF-9.601638940166769
aF-5.2071897854943305
aF-6.1676517356816225
aF-4.892108738854435
aF-9.601638940166769
aF-9.601638940166769
aF-2.3495849883139552
aF-9.601638940166769
aF-5.2071897854943305
aF-9.601638940166769
aF-9.601638940166769
aF-7.203743667368399
aF-9.601638940166769
aF-9.601638940166769
aF-4.805848394570028
aF-9.601638940166769
aF-9.601638940166769
aF-5.2071897854943305
aF-9.601638940166769
aF-3.512594064719923
aF-4.459975383664109
aF-6.1676517356816225
aF-6.1676517356816225
aF-5.2071897854943305
aF-9.601638940166769
aF-2.6159971225275607
aF-9.601638940166769
aF-9.601638940166769
aF-6.1676517356816225
aF-2.891115830714341
aF-9.601638940166769
aF-9.601638940166769
aF-7.203743667368399
aF-7.203743667368399
aF-9.601638940166769
aF-5.888066873462462
aF-6.1676517356816225
aF-9.601638940166769
aF-6.557116502443346
aF-4.892108738854435
aF-6.557116502443346
aF-9.601638940166769
aF-4.652879049788601
aF-6.557116502443346
aF-9.601638940166769
aF-9.601638940166769
aF-4.726441616965618
aF-7.203743667368399
aF-9.601638940166769
aF-9.601638940166769
aF-9.601638940166769
aF-7.203743667368399
aF-6.1676517356816225
aF-4.652879049788601
aF-4.203476238649016
aF-4.98651842332551
aF-4.652879049788601
aF-4.892108738854435
aF-6.1676517356816225
aF-6.557116502443346
aF-7.203743667368399
aF-5.490765075993458
aF-9.601638940166769
aF-4.349365512120139
aF-4.805848394570028
aF-9.601638940166769
aF-9.601638940166769
aF-9.601638940166769
aF-6.557116502443346
aF-7.203743667368399
aF-6.557116502443346
aF-6.557116502443346
aF-6.557116502443346
aF-9.601638940166769
aF-4.726441616965618
aF-5.888066873462462
aF-5.888066873462462
aF-9.601638940166769
aF-9.601638940166769
aF-7.203743667368399
aF-5.888066873462462
aF-6.557116502443346
aF-4.652879049788601
aF-5.2071897854943305
aF-3.2899041310138544
aF-7.203743667368399
aF-4.726441616965618
aF-9.601638940166769
aF-5.888066873462462
aF-6.1676517356816225
aF-5.490765075993458
aF-9.601638940166769
aF-7.203743667368399
aF-9.601638940166769
aF-9.601638940166769
aF-7.203743667368399
aF-9.601638940166769
aF-9.601638940166769
aF-4.249780806690702
aF-9.601638940166769
aF-7.203743667368399
aF-9.601638940166769
aF-9.601638940166769
aF-5.6698133074424435
aF-9.601638940166769
aF-5.6698133074424435
aF-6.557116502443346
aF-3.4901716006640906
aF-9.601638940166769
aF-5.6698133074424435
aF-6.1676517356816225
aF-9.601638940166769
aF-5.888066873462462
aF-9.601638940166769
aF-5.2071897854943305
aF-5.888066873462462
aF-5.6698133074424435
aF-9.601638940166769
aF-6.1676517356816225
aF-7.203743667368399
aF-9.601638940166769
aF-9.601638940166769
aF-9.601638940166769
aF-9.601638940166769
aF-9.601638940166769
aF-7.203743667368399
aF-9.601638940166769
aF-5.2071897854943305
aF-5.6698133074424435
aF-6.1676517356816225
aF-7.203743667368399
aF-3.6329313801814034
aF-5.888066873462462
aF-9.601638940166769
aF-7.203743667368399
aF-5.090779433649919
aF-4.805848394570028
aF-9.601638940166769
aF-7.203743667368399
aF-7.203743667368399
aF-5.490765075993458
aF-4.98651842332551
aF-9.601638940166769
aF-6.557116502443346
aF-9.601638940166769
aF-4.5843591033518445
aF-9.601638940166769
aF-5.2071897854943305
aF-6.557116502443346
aF-9.601638940166769
aF-6.1676517356816225
aF-5.888066873462462
aF-9.601638940166769
aF-9.601638940166769
aF-7.203743667368399
aF-9.601638940166769
aF-5.6698133074424435
aF-9.601638940166769
aF-6.557116502443346
aF-9.601638940166769
aF-6.1676517356816225
aF-5.2071897854943305
aF-5.090779433649919
aF-5.2071897854943305
aF-7.203743667368399
aF-6.1676517356816225
aF-9.601638940166769
aF-7.203743667368399
aF-9.601638940166769
aF-9.601638940166769
aF-9.601638940166769
aF-9.601638940166769
aF-9.601638940166769
aF-9.601638940166769
aF-9.601638940166769
aF-5.090779433649919
aF-9.601638940166769
aF-9.601638940166769
aF-9.601638940166769
aF-9.601638940166769
aF-5.338959063125454
aF-7.203743667368399
aF-6.557116502443346
aF-7.203743667368399
aF-9.601638940166769
aF-7.203743667368399
aF-3.446780846150351
aF-9.601638940166769
aF-9.601638940166769
aF-3.1703078582332904
aF-9.601638940166769
aF-5.338959063125454
aF-5.2071897854943305
aF-9.601638940166769
aF-9.601638940166769
aF-6.557116502443346
aF-4.98651842332551
aF-9.601638940166769
aF-9.601638940166769
aF-9.601638940166769
aF-9.601638940166769
aF-9.601638940166769
aF-9.601638940166769
aF-9.601638940166769
aF-5.6698133074424435
aF-6.557116502443346
aF-6.557116502443346
aF-6.1676517356816225
aF-9.601638940166769
aF-9.601638940166769
aF-3.4901716006640906
aF-5.888066873462462
aF-7.203743667368399
aF-4.892108738854435
aF-7.203743667368399
aF-6.557116502443346
aF-9.601638940166769
aF-9.601638940166769
aF-5.090779433649919
aF-5.6698133074424435
aF-9.601638940166769
aF-6.557116502443346
aF-9.601638940166769
aF-5.888066873462462
aF-5.490765075993458
aF-4.98651842332551
aF-9.601638940166769
aF-5.338959063125454
aF-9.601638940166769
aF-6.557116502443346
aF-7.203743667368399
aF-7.203743667368399
aF-7.203743667368399
aF-9.601638940166769
aF-9.601638940166769
aF-9.601638940166769
aF-7.203743667368399
aF-3.861846027987535
aF-9.601638940166769
aF-9.601638940166769
aF-6.557116502443346
aF-5.888066873462462
aF-4.98651842332551
aF-3.7995205647897063
aF-5.2071897854943305
aF-9.601638940166769
aF-9.601638940166769
aF-9.601638940166769
aF-9.601638940166769
aF-9.601638940166769
aF-9.601638940166769
aF-9.601638940166769
aF-4.805848394570028
aF-9.601638940166769
aF-9.601638940166769
aF-9.601638940166769
aF-5.090779433649919
aF-9.601638940166769
aF-6.557116502443346
aF-7.203743667368399
aF-9.601638940166769
aF-7.203743667368399
aF-9.601638940166769
aF-7.203743667368399
aF-9.601638940166769
aF-5.090779433649919
aF-7.203743667368399
aF-5.888066873462462
aF-6.1676517356816225
aF-6.1676517356816225
aF-7.203743667368399
aF-9.601638940166769
aF-9.601638940166769
aF-7.203743667368399
aF-7.203743667368399
aF-9.601638940166769
aF-6.557116502443346
aF-9.601638940166769
aF-6.1676517356816225
aF-6.1676517356816225
aF-7.203743667368399
aF-5.490765075993458
aF-9.601638940166769
aF-3.6329313801814034
aF-4.892108738854435
aF-5.6698133074424435
aF-4.403141908900944
aF-4.652879049788601
aF-3.685436877559334
aF-4.459975383664109
aF-6.557116502443346
aF-9.601638940166769
aF-6.1676517356816225
aF-7.203743667368399
aF-9.601638940166769
aF-9.601638940166769
aF-9.601638940166769
aF-9.601638940166769
aF-9.601638940166769
aF-5.888066873462462
aF-6.557116502443346
aF-7.203743667368399
aF-6.557116502443346
aF-5.338959063125454
aF-9.601638940166769
aF-7.203743667368399
aF-5.490765075993458
aF-7.203743667368399
aF-7.203743667368399
aF-9.601638940166769
aF-9.601638940166769
aF-9.601638940166769
aF-9.601638940166769
aF-6.557116502443346
aF-6.557116502443346
aF-9.601638940166769
aF-6.557116502443346
aF-9.601638940166769
aF-9.601638940166769
aF-9.601638940166769
aF-9.601638940166769
aF-9.601638940166769
aF-9.601638940166769
aF-9.601638940166769
aF-7.203743667368399
aF-9.601638940166769
aF-9.601638940166769
aF-5.888066873462462
aF-7.203743667368399
aF-5.888066873462462
aF-9.601638940166769
aF-9.601638940166769
aF-9.601638940166769
aF-4.249780806690702
aF-5.888066873462462
aF-7.203743667368399
aF-5.2071897854943305
aF-6.1676517356816225
aF-6.557116502443346
aF-9.601638940166769
aF-5.6698133074424435
aF-9.601638940166769
aF-7.203743667368399
aF-9.601638940166769
aF-6.1676517356816225
aF-9.601638940166769
aF-3.8301978170367534
aF-5.090779433649919
aF-6.557116502443346
aF-9.601638940166769
aF-6.557116502443346
aF-6.1676517356816225
aF-7.203743667368399
aF-7.203743667368399
aF-9.601638940166769
aF-4.98651842332551
aF-7.203743667368399
aF-5.490765075993458
aF-7.203743667368399
aF-5.888066873462462
aF-9.601638940166769
aF-7.203743667368399
aF-9.601638940166769
aF-9.601638940166769
aF-9.601638940166769
aF-9.601638940166769
aF-7.203743667368399
aF-9.601638940166769
aF-9.601638940166769
aF-7.203743667368399
aF-9.601638940166769
aF-9.601638940166769
aF-6.557116502443346
aF-9.601638940166769
aF-9.601638940166769
aF-5.888066873462462
aF-7.203743667368399
aF-9.601638940166769
aF-4.249780806690702
aF-3.7995205647897063
aF-7.203743667368399
aF-9.601638940166769
aF-9.601638940166769
aF-7.203743667368399
aF-9.601638940166769
aF-9.601638940166769
aF-9.601638940166769
aF-9.601638940166769
aF-9.601638940166769
aF-9.601638940166769
aF-5.490765075993458
aF-6.1676517356816225
aF-7.203743667368399
aF-9.601638940166769
aF-7.203743667368399
aF-7.203743667368399
aF-9.601638940166769
aF-5.090779433649919
aF-9.601638940166769
aF-7.203743667368399
aF-9.601638940166769
aF-7.203743667368399
aF-9.601638940166769
aF-5.090779433649919
aF-5.2071897854943305
aF-9.601638940166769
aF-9.601638940166769
aF-6.557116502443346
aF-9.601638940166769
aF-9.601638940166769
aF-2.967005582305083
aF-5.6698133074424435
aF-5.490765075993458
aF-5.6698133074424435
aF-6.557116502443346
aF-9.601638940166769
aF-4.459975383664109
aF-5.338959063125454
aF-6.1676517356816225
aF-9.601638940166769
aF-9.601638940166769
aF-1.7573982220249578
aF-9.601638940166769
aF-6.557116502443346
aF-9.601638940166769
aF-9.601638940166769
aF-6.1676517356816225
aF-5.888066873462462
aF-6.557116502443346
aF-7.203743667368399
aF-6.1676517356816225
aF-9.601638940166769
aF-9.601638940166769
aF-7.203743667368399
aF-7.203743667368399
aF-5.2071897854943305
aF-5.888066873462462
aF-9.601638940166769
aF-5.2071897854943305
aF-4.116842006676114
aF-9.601638940166769
aF-5.090779433649919
aF-5.2071897854943305
aF-4.1592212296449755
aF-6.1676517356816225
aF-9.601638940166769
aF-5.490765075993458
aF-9.601638940166769
aF-9.601638940166769
aF-9.601638940166769
aF-9.601638940166769
aF-4.349365512120139
aF-5.2071897854943305
aF-6.1676517356816225
aF-3.154333077625556
aF-5.6698133074424435
aF-9.601638940166769
aF-9.601638940166769
aF-9.601638940166769
aF-6.1676517356816225
aF-9.601638940166769
aF-6.1676517356816225
aF-4.892108738854435
aF-9.601638940166769
aF-6.557116502443346
aF-5.2071897854943305
aF-9.601638940166769
aF-9.601638940166769
aF-7.203743667368399
aF-4.805848394570028
aF-4.98651842332551
aF-5.888066873462462
aF-9.601638940166769
aF-5.490765075993458
aF-9.601638940166769
aF-7.203743667368399
aF-5.338959063125454
aF-5.888066873462462
aF-9.601638940166769
aF-5.888066873462462
aF-5.888066873462462
aF-9.601638940166769
aF-9.601638940166769
aF-9.601638940166769
aF-9.601638940166769
aF-9.601638940166769
aF-4.805848394570028
aF-9.601638940166769
aF-7.203743667368399
aF-9.601638940166769
aF-5.490765075993458
aF-7.203743667368399
aF-6.557116502443346
aF-3.7408527167009034
aF-9.601638940166769
aF-4.076186001034985
aF-4.98651842332551
aF-3.999520119287068
aF-5.6698133074424435
aF-9.601638940166769
aF-9.601638940166769
aF-9.601638940166769
aF-9.601638940166769
aF-9.601638940166769
aF-9.601638940166769
aF-9.601638940166769
aF-5.490765075993458
aF-9.601638940166769
aF-6.557116502443346
aF-7.203743667368399
aF-9.601638940166769
aF-7.203743667368399
aF-7.203743667368399
aF-6.557116502443346
aF-7.203743667368399
aF-5.888066873462462
aF-5.2071897854943305
aF-9.601638940166769
aF-7.203743667368399
aF-9.601638940166769
aF-9.601638940166769
aF-4.5843591033518445
aF-9.601638940166769
aF-7.203743667368399
aF-6.1676517356816225
aF-4.892108738854435
aF-6.1676517356816225
aF-5.090779433649919
aF-3.5830457256705346
aF-9.601638940166769
aF-4.892108738854435
aF-7.203743667368399
aF-6.557116502443346
aF-7.203743667368399
aF-9.601638940166769
aF-6.1676517356816225
aF-7.203743667368399
aF-5.6698133074424435
aF-9.601638940166769
aF-5.2071897854943305
aF-9.601638940166769
aF-5.490765075993458
aF-9.601638940166769
aF-9.601638940166769
aF-6.557116502443346
aF-9.601638940166769
aF-6.1676517356816225
aF-9.601638940166769
aF-9.601638940166769
aF-6.557116502443346
aF-7.203743667368399
aF-9.601638940166769
aF-6.1676517356816225
aF-7.203743667368399
aF-9.601638940166769
aF-4.805848394570028
aF-4.349365512120139
aF-5.6698133074424435
aF-5.888066873462462
aF-9.601638940166769
aF-6.557116502443346
aF-5.490765075993458
aF-3.7408527167009034
aF-6.1676517356816225
aF-7.203743667368399
aF-7.203743667368399
aF-9.601638940166769
aF-7.203743667368399
aF-9.601638940166769
aF-7.203743667368399
aF-9.601638940166769
aF-7.203743667368399
aF-9.601638940166769
aF-7.203743667368399
aF-9.601638940166769
aF-7.203743667368399
aF-9.601638940166769
aF-9.601638940166769
aF-5.888066873462462
aF-9.601638940166769
aF-7.203743667368399
aF-7.203743667368399
aF-7.203743667368399
aF-7.203743667368399
aF-6.557116502443346
aF-6.557116502443346
aF-5.338959063125454
aF-6.557116502443346
aF-7.203743667368399
aF-9.601638940166769
aF-4.076186001034985
aF-9.601638940166769
aF-9.601638940166769
aF-5.6698133074424435
aF-7.203743667368399
aF-6.557116502443346
aF-9.601638940166769
aF-9.601638940166769
aF-5.490765075993458
aF-9.601638940166769
aF-4.805848394570028
aF-5.490765075993458
aF-9.601638940166769
aF-9.601638940166769
aF-7.203743667368399
aF-5.888066873462462
aF-9.601638940166769
aF-9.601638940166769
aF-5.090779433649919
aF-9.601638940166769
aF-7.203743667368399
aF-9.601638940166769
aF-9.601638940166769
aF-9.601638940166769
aF-9.601638940166769
aF-5.888066873462462
aF-9.601638940166769
aF-9.601638940166769
aF-9.601638940166769
aF-9.601638940166769
aF-7.203743667368399
aF-7.203743667368399
aF-6.557116502443346
aF-9.601638940166769
aF-9.601638940166769
aF-9.601638940166769
aF-4.5843591033518445
aF-7.203743667368399
aF-7.203743667368399
aF-9.601638940166769
aF-7.203743667368399
aF-5.338959063125454
aF-5.6698133074424435
aF-9.601638940166769
aF-9.601638940166769
aF-6.557116502443346
aF-6.1676517356816225
aF-9.601638940166769
aF-5.490765075993458
aF-9.601638940166769
aF-4.652879049788601
aF-6.1676517356816225
aF-7.203743667368399
aF-5.090779433649919
aF-7.203743667368399
aF-9.601638940166769
aF-4.5843591033518445
aF-6.557116502443346
aF-7.203743667368399
aF-9.601638940166769
aF-5.338959063125454
aF-6.557116502443346
aF-4.298334032107693
aF-9.601638940166769
aF-6.1676517356816225
aF-5.490765075993458
aF-5.2071897854943305
aF-6.1676517356816225
aF-5.6698133074424435
aF-4.037118532844076
aF-5.490765075993458
aF-7.203743667368399
aF-3.6076775128602
aF-9.601638940166769
aF-9.601638940166769
aF-9.601638940166769
aF-6.557116502443346
aF-5.6698133074424435
aF-9.601638940166769
aF-5.6698133074424435
aF-3.861846027987535
aF-6.1676517356816225
aF-6.557116502443346
aF-5.888066873462462
aF-6.557116502443346
aF-9.601638940166769
aF-9.601638940166769
aF-6.1676517356816225
aF-9.601638940166769
aF-9.601638940166769
aF-4.298334032107693
aF-7.203743667368399
aF-6.557116502443346
aF-9.601638940166769
aF-9.601638940166769
aF-5.090779433649919
aF-7.203743667368399
aF-3.8945286754178934
aF-4.652879049788601
aF-3.861846027987535
aF-5.6698133074424435
aF-9.601638940166769
aF-7.203743667368399
aF-7.203743667368399
aF-9.601638940166769
aF-6.557116502443346
aF-4.892108738854435
aF-9.601638940166769
aF-9.601638940166769
aF-9.601638940166769
aF-4.652879049788601
aF-6.557116502443346
aF-9.601638940166769
aF-9.601638940166769
aF-9.601638940166769
aF-9.601638940166769
aF-9.601638940166769
aF-7.203743667368399
aF-6.1676517356816225
aF-7.203743667368399
aF-5.888066873462462
aF-4.203476238649016
aF-9.601638940166769
aF-7.203743667368399
aF-9.601638940166769
aF-9.601638940166769
aF-6.557116502443346
aF-9.601638940166769
aF-6.557116502443346
aF-5.090779433649919
aF-4.459975383664109
aF-4.037118532844076
aF-9.601638940166769
aF-3.6076775128602
aF-6.1676517356816225
aF-6.557116502443346
aF-9.601638940166769
aF-9.601638940166769
aF-7.203743667368399
aF-9.601638940166769
aF-5.338959063125454
aF-6.557116502443346
aF-4.98651842332551
aF-4.403141908900944
aF-5.888066873462462
aF-4.892108738854435
aF-5.888066873462462
aF-9.601638940166769
aF-4.298334032107693
aF-9.601638940166769
aF-4.98651842332551
aF-4.726441616965618
aF-6.1676517356816225
aF-9.601638940166769
aF-5.090779433649919
aF-9.601638940166769
aF-7.203743667368399
aF-6.557116502443346
aF-4.520234575182306
aF-5.338959063125454
aF-5.338959063125454
aF-4.892108738854435
aF-7.203743667368399
aF-6.1676517356816225
aF-7.203743667368399
aF-9.601638940166769
aF-9.601638940166769
aF-6.557116502443346
aF-9.601638940166769
aF-9.601638940166769
aF-9.601638940166769
aF-9.601638940166769
aF-9.601638940166769
aF-9.601638940166769
aF-5.2071897854943305
aF-6.557116502443346
aF-5.2071897854943305
aF-6.1676517356816225
aF-4.520234575182306
aF-4.892108738854435
aF-4.459975383664109
aF-6.1676517356816225
aF-4.459975383664109
aF-6.557116502443346
aF-7.203743667368399
aF-9.601638940166769
aF-9.601638940166769
aF-9.601638940166769
aF-9.601638940166769
aF-9.601638940166769
aF-9.601638940166769
aF-9.601638940166769
aF-9.601638940166769
aF-6.1676517356816225
aF-9.601638940166769
aF-9.601638940166769
aF-3.1865419809951736
aF-6.1676517356816225
aF-6.557116502443346
aF-5.490765075993458
aF-7.203743667368399
aF-3.271918034644073
aF-9.601638940166769
aF-9.601638940166769
aF-9.601638940166769
aF-9.601638940166769
aF-5.888066873462462
aF-9.601638940166769
aF-9.601638940166769
aF-9.601638940166769
aF-9.601638940166769
aF-6.557116502443346
aF-9.601638940166769
aF-4.5843591033518445
aF-6.557116502443346
aF-7.203743667368399
aF-3.2542497305107587
aF-5.490765075993458
aF-6.1676517356816225
aF-6.1676517356816225
aF-5.090779433649919
aF-9.601638940166769
aF-5.888066873462462
aF-7.203743667368399
aF-9.601638940166769
aF-7.203743667368399
aF-9.601638940166769
aF-9.601638940166769
aF-4.037118532844076
aF-5.338959063125454
aF-5.490765075993458
aF-9.601638940166769
aF-5.090779433649919
aF-5.2071897854943305
aF-9.601638940166769
aF-9.601638940166769
aF-7.203743667368399
aF-4.5843591033518445
aF-9.601638940166769
aF-6.557116502443346
aF-9.601638940166769
aF-5.338959063125454
aF-7.203743667368399
aF-9.601638940166769
aF-9.601638940166769
aF-9.601638940166769
aF-9.601638940166769
aF-9.601638940166769
aF-9.601638940166769
aF-6.1676517356816225
aF-9.601638940166769
aF-7.203743667368399
aF-9.601638940166769
aF-9.601638940166769
aF-7.203743667368399
aF-7.203743667368399
aF-7.203743667368399
aF-9.601638940166769
aF-9.601638940166769
aF-9.601638940166769
aF-9.601638940166769
aF-5.888066873462462
aF-9.601638940166769
aF-9.601638940166769
aF-9.601638940166769
aF-9.601638940166769
aF-4.98651842332551
aF-9.601638940166769
aF-7.203743667368399
aF-6.1676517356816225
aF-9.601638940166769
aF-9.601638940166769
aF-6.1676517356816225
aF-7.203743667368399
aF-7.203743667368399
aF-9.601638940166769
aF-6.557116502443346
aF-6.557116502443346
aF-9.601638940166769
aF-9.601638940166769
aF-9.601638940166769
aF-6.1676517356816225
aF-9.601638940166769
aF-9.601638940166769
aF-4.349365512120139
aF-9.601638940166769
aF-6.1676517356816225
aF-6.557116502443346
aF-9.601638940166769
aF-9.601638940166769
aF-9.601638940166769
aF-2.91577799309841
aF-6.557116502443346
aF-5.490765075993458
aF-7.203743667368399
aF-7.203743667368399
aF-4.520234575182306
aF-6.557116502443346
aF-6.1676517356816225
aF-9.601638940166769
aF-5.888066873462462
aF-7.203743667368399
aF-9.601638940166769
aF-4.520234575182306
aF-7.203743667368399
aF-7.203743667368399
aF-9.601638940166769
aF-6.1676517356816225
aF-9.601638940166769
aF-6.1676517356816225
aF-6.557116502443346
aF-9.601638940166769
aF-6.1676517356816225
aF-5.888066873462462
aF-3.658839565040068
aF-6.1676517356816225
aF-9.601638940166769
aF-6.557116502443346
aF-9.601638940166769
aF-7.203743667368399
aF-9.601638940166769
aF-7.203743667368399
aF-9.601638940166769
aF-6.557116502443346
aF-6.557116502443346
aF-6.557116502443346
aF-6.557116502443346
aF-6.557116502443346
aF-7.203743667368399
aF-5.090779433649919
aF-9.601638940166769
aF-4.5843591033518445
aF-4.726441616965618
aF-5.888066873462462
aF-9.601638940166769
aF-9.601638940166769
aF-6.557116502443346
aF-5.338959063125454
aF-6.557116502443346
aF-6.557116502443346
aF-4.5843591033518445
aF-5.888066873462462
aF-4.652879049788601
aF-9.601638940166769
aF-9.601638940166769
aF-6.1676517356816225
aF-9.601638940166769
aF-9.601638940166769
aF-5.338959063125454
aF-6.557116502443346
aF-9.601638940166769
aF-9.601638940166769
aF-9.601638940166769
aF-5.888066873462462
aF-7.203743667368399
aF-9.601638940166769
aF-9.601638940166769
aF-7.203743667368399
aF-7.203743667368399
aF-6.557116502443346
aF-7.203743667368399
aF-9.601638940166769
aF-9.601638940166769
aF-9.601638940166769
aF-9.601638940166769
aF-7.203743667368399
aF-7.203743667368399
aF-9.601638940166769
aF-7.203743667368399
aF-9.601638940166769
aF-9.601638940166769
aF-6.557116502443346
aF-5.490765075993458
aF-7.203743667368399
aF-9.601638940166769
aF-6.1676517356816225
aF-5.2071897854943305
aF-5.338959063125454
aF-7.203743667368399
aF-5.338959063125454
aF-6.1676517356816225
aF-7.203743667368399
aF-9.601638940166769
aF-9.601638940166769
aF-6.557116502443346
aF-9.601638940166769
aF-9.601638940166769
aF-5.338959063125454
aF-9.601638940166769
aF-7.203743667368399
aF-9.601638940166769
aF-9.601638940166769
aF-6.1676517356816225
aF-4.5843591033518445
aF-9.601638940166769
aF-4.726441616965618
aF-7.203743667368399
aF-7.203743667368399
aF-4.520234575182306
aF-5.6698133074424435
aF-9.601638940166769
aF-6.557116502443346
aF-6.557116502443346
aF-7.203743667368399
aF-5.6698133074424435
aF-7.203743667368399
aF-9.601638940166769
aF-9.601638940166769
aF-9.601638940166769
aF-7.203743667368399
aF-9.601638940166769
aF-9.601638940166769
aF-9.601638940166769
aF-9.601638940166769
aF-5.090779433649919
aF-4.037118532844076
aF-4.805848394570028
aF-3.7408527167009034
aF-9.601638940166769
aF-9.601638940166769
aF-4.98651842332551
aF-9.601638940166769
aF-7.203743667368399
aF-5.338959063125454
aF-4.805848394570028
aF-9.601638940166769
aF-4.98651842332551
aF-9.601638940166769
aF-6.557116502443346
aF-5.2071897854943305
aF-9.601638940166769
aF-7.203743667368399
aF-7.203743667368399
aF-9.601638940166769
aF-9.601638940166769
aF-9.601638940166769
aF-6.557116502443346
aF-7.203743667368399
aF-5.490765075993458
aF-9.601638940166769
aF-6.1676517356816225
aF-9.601638940166769
aF-9.601638940166769
aF-9.601638940166769
aF-7.203743667368399
aF-6.557116502443346
aF-7.203743667368399
aF-9.601638940166769
aF-5.2071897854943305
aF-3.999520119287068
aF-7.203743667368399
aF-7.203743667368399
aF-5.888066873462462
aF-9.601638940166769
aF-9.601638940166769
aF-6.557116502443346
aF-4.298334032107693
aF-5.490765075993458
aF-5.490765075993458
aF-7.203743667368399
aF-3.0349665103635286
aF-4.459975383664109
aF-4.652879049788601
aF-6.1676517356816225
aF-7.203743667368399
aF-9.601638940166769
aF-9.601638940166769
aF-7.203743667368399
aF-4.98651842332551
aF-7.203743667368399
aF-6.1676517356816225
aF-9.601638940166769
aF-9.601638940166769
aF-5.090779433649919
aF-5.090779433649919
aF-6.557116502443346
aF-9.601638940166769
aF-6.557116502443346
aF-3.9632842708330234
aF-4.652879049788601
aF-5.490765075993458
aF-7.203743667368399
aF-9.601638940166769
aF-5.6698133074424435
aF-2.570781464050649
aF-4.403141908900944
aF-4.5843591033518445
aF-4.459975383664109
aF-3.7127609818338883
aF-6.1676517356816225
aF-4.520234575182306
aF-4.459975383664109
aF-9.601638940166769
aF-5.6698133074424435
aF-9.601638940166769
aF-9.601638940166769
aF-4.116842006676114
aF-7.203743667368399
aF-5.888066873462462
aF-6.1676517356816225
aF-4.520234575182306
aF-7.203743667368399
aF-6.557116502443346
aF-9.601638940166769
aF-6.557116502443346
aF-5.490765075993458
aF-3.512594064719923
aF-5.6698133074424435
aF-4.892108738854435
aF-7.203743667368399
aF-7.203743667368399
aF-7.203743667368399
aF-3.8945286754178934
aF-9.601638940166769
aF-6.1676517356816225
aF-9.601638940166769
aF-9.601638940166769
aF-9.601638940166769
aF-6.557116502443346
aF-9.601638940166769
aF-6.1676517356816225
aF-9.601638940166769
aF-9.601638940166769
aF-7.203743667368399
aF-9.601638940166769
aF-9.601638940166769
aF-4.403141908900944
aF-5.490765075993458
aF-4.98651842332551
aF-7.203743667368399
aF-4.892108738854435
aF-9.601638940166769
aF-6.557116502443346
aF-5.090779433649919
aF-4.805848394570028
aF-9.601638940166769
aF-7.203743667368399
aF-9.601638940166769
aF-6.1676517356816225
aF-9.601638940166769
aF-7.203743667368399
aF-9.601638940166769
aF-9.601638940166769
aF-9.601638940166769
aF-7.203743667368399
aF-9.601638940166769
aF-9.601638940166769
aF-9.601638940166769
aF-9.601638940166769
aF-7.203743667368399
aF-6.1676517356816225
aF-9.601638940166769
aF-9.601638940166769
aF-5.888066873462462
aF-9.601638940166769
aF-7.203743667368399
aF-4.1592212296449755
aF-4.892108738854435
aF-5.888066873462462
aF-3.512594064719923
aF-9.601638940166769
aF-2.8435444357390383
aF-6.1676517356816225
aF-2.9539505666034396
aF-4.116842006676114
aF-6.1676517356816225
aF-5.338959063125454
aF-4.726441616965618
aF-6.1676517356816225
aF-6.557116502443346
aF-9.601638940166769
aF-5.090779433649919
aF-9.601638940166769
aF-9.601638940166769
aF-7.203743667368399
aF-4.249780806690702
aF-4.403141908900944
aF-9.601638940166769
aF-9.601638940166769
aF-4.203476238649016
aF-4.726441616965618
aF-4.805848394570028
aF-9.601638940166769
aF-9.601638940166769
aF-6.557116502443346
aF-5.888066873462462
aF-9.601638940166769
aF-9.601638940166769
aF-7.203743667368399
aF-9.601638940166769
aF-4.892108738854435
aF-4.298334032107693
aF-4.892108738854435
aF-9.601638940166769
aF-6.1676517356816225
aF-7.203743667368399
aF-5.338959063125454
aF-9.601638940166769
aF-9.601638940166769
aF-9.601638940166769
aF-5.338959063125454
aF-7.203743667368399
aF-4.892108738854435
aF-3.2899041310138544
aF-5.2071897854943305
aF-4.805848394570028
aF-7.203743667368399
aF-5.6698133074424435
aF-5.490765075993458
aF-4.037118532844076
aF-6.557116502443346
aF-7.203743667368399
aF-9.601638940166769
aF-9.601638940166769
aF-3.685436877559334
aF-5.6698133074424435
aF-7.203743667368399
aF-2.5886231505271393
aF-6.1676517356816225
aF-5.090779433649919
aF-9.601638940166769
aF-7.203743667368399
aF-6.557116502443346
aF-5.090779433649919
aF-6.1676517356816225
aF-9.601638940166769
aF-9.601638940166769
aF-9.601638940166769
aF-5.888066873462462
aF-4.403141908900944
aF-6.1676517356816225
aF-5.490765075993458
aF-5.2071897854943305
aF-7.203743667368399
aF-3.861846027987535
aF-5.490765075993458
aF-6.1676517356816225
aF-4.459975383664109
aF-7.203743667368399
aF-9.601638940166769
aF-9.601638940166769
aF-7.203743667368399
aF-9.601638940166769
aF-7.203743667368399
aF-9.601638940166769
aF-9.601638940166769
aF-9.601638940166769
aF-5.490765075993458
aF-5.090779433649919
aF-3.236888183314858
aF-7.203743667368399
aF-5.490765075993458
aF-6.1676517356816225
aF-4.98651842332551
aF-9.601638940166769
aF-9.601638940166769
aF-6.557116502443346
aF-6.557116502443346
aF-9.601638940166769
aF-5.888066873462462
aF-9.601638940166769
aF-9.601638940166769
aF-6.1676517356816225
aF-5.6698133074424435
aF-5.6698133074424435
aF-6.1676517356816225
aF-9.601638940166769
aF-7.203743667368399
aF-3.2899041310138544
aF-3.4682408971701206
aF-4.037118532844076
aF-9.601638940166769
aF-7.203743667368399
aF-7.203743667368399
aF-9.601638940166769
aF-5.490765075993458
aF-6.557116502443346
aF-7.203743667368399
aF-9.601638940166769
aF-9.601638940166769
aF-7.203743667368399
aF-7.203743667368399
aF-9.601638940166769
aF-7.203743667368399
aF-7.203743667368399
aF-9.601638940166769
aF-9.601638940166769
aF-7.203743667368399
aF-9.601638940166769
aF-6.557116502443346
aF-9.601638940166769
aF-5.888066873462462
aF-5.888066873462462
aF-6.1676517356816225
aF-5.888066873462462
aF-6.1676517356816225
aF-9.601638940166769
aF-5.490765075993458
aF-9.601638940166769
aF-7.203743667368399
aF-5.090779433649919
aF-7.203743667368399
aF-9.601638940166769
aF-5.2071897854943305
aF-6.1676517356816225
aF-9.601638940166769
aF-7.203743667368399
aF-9.601638940166769
aF-9.601638940166769
aF-4.726441616965618
aF-6.557116502443346
aF-5.490765075993458
aF-4.116842006676114
aF-3.365269349963065
aF-6.557116502443346
aF-9.601638940166769
aF-6.1676517356816225
aF-9.601638940166769
aF-6.557116502443346
aF-4.076186001034985
aF-9.601638940166769
aF-4.98651842332551
aF-3.1703078582332904
aF-5.6698133074424435
aF-4.298334032107693
aF-9.601638940166769
aF-5.6698133074424435
aF-6.1676517356816225
aF-9.601638940166769
aF-9.601638940166769
aF-9.601638940166769
aF-9.601638940166769
aF-4.520234575182306
aF-6.557116502443346
aF-5.888066873462462
aF-7.203743667368399
aF-9.601638940166769
aF-5.888066873462462
aF-6.557116502443346
aF-4.5843591033518445
aF-6.557116502443346
aF-7.203743667368399
aF-7.203743667368399
aF-9.601638940166769
aF-9.601638940166769
aF-7.203743667368399
aF-3.9632842708330234
aF-5.490765075993458
aF-4.5843591033518445
aF-5.6698133074424435
aF-7.203743667368399
aF-9.601638940166769
aF-9.601638940166769
aF-4.98651842332551
aF-5.2071897854943305
aF-4.1592212296449755
aF-9.601638940166769
aF-4.298334032107693
aF-9.601638940166769
aF-7.203743667368399
aF-9.601638940166769
aF-9.601638940166769
aF-7.203743667368399
aF-9.601638940166769
aF-9.601638940166769
aF-5.6698133074424435
aF-9.601638940166769
aF-9.601638940166769
aF-9.601638940166769
aF-9.601638940166769
aF-6.557116502443346
aF-7.203743667368399
aF-5.490765075993458
aF-7.203743667368399
aF-7.203743667368399
aF-5.338959063125454
aF-5.6698133074424435
aF-9.601638940166769
aF-9.601638940166769
aF-9.601638940166769
aF-9.601638940166769
aF-6.557116502443346
aF-9.601638940166769
aF-9.601638940166769
aF-4.403141908900944
aF-5.2071897854943305
aF-6.557116502443346
aF-9.601638940166769
aF-7.203743667368399
aF-5.888066873462462
aF-9.601638940166769
aF-9.601638940166769
aF-9.601638940166769
aF-6.557116502443346
aF-5.490765075993458
aF-9.601638940166769
aF-2.744124877621379
aF-9.601638940166769
aF-4.652879049788601
aF-9.601638940166769
aF-9.601638940166769
aF-6.557116502443346
aF-5.6698133074424435
aF-7.203743667368399
aF-5.6698133074424435
aF-6.557116502443346
aF-9.601638940166769
aF-5.090779433649919
aF-4.892108738854435
aF-7.203743667368399
aF-7.203743667368399
aF-7.203743667368399
aF-9.601638940166769
aF-6.557116502443346
aF-6.1676517356816225
aF-3.7995205647897063
aF-5.888066873462462
aF-5.888066873462462
aF-7.203743667368399
aF-9.601638940166769
aF-6.1676517356816225
aF-9.601638940166769
aF-7.203743667368399
aF-9.601638940166769
aF-9.601638940166769
aF-3.7697564628832523
aF-4.1592212296449755
aF-6.557116502443346
aF-9.601638940166769
aF-9.601638940166769
aF-9.601638940166769
aF-6.557116502443346
aF-9.601638940166769
aF-6.1676517356816225
aF-6.557116502443346
aF-9.601638940166769
aF-7.203743667368399
aF-6.557116502443346
aF-6.557116502443346
aF-9.601638940166769
aF-4.403141908900944
aF-4.726441616965618
aF-7.203743667368399
aF-5.490765075993458
aF-6.557116502443346
aF-5.888066873462462
aF-9.601638940166769
aF-9.601638940166769
aF-9.601638940166769
aF-9.601638940166769
aF-9.601638940166769
aF-5.888066873462462
aF-9.601638940166769
aF-6.1676517356816225
aF-9.601638940166769
aF-9.601638940166769
aF-5.090779433649919
aF-6.557116502443346
aF-6.1676517356816225
aF-4.892108738854435
aF-6.557116502443346
aF-5.888066873462462
aF-5.888066873462462
aF-4.349365512120139
aF-9.601638940166769
aF-5.888066873462462
aF-6.557116502443346
aF-6.557116502443346
aF-9.601638940166769
aF-9.601638940166769
aF-5.888066873462462
aF-3.271918034644073
aF-9.601638940166769
aF-4.403141908900944
aF-6.557116502443346
aF-4.403141908900944
aF-6.1676517356816225
aF-9.601638940166769
aF-7.203743667368399
aF-9.601638940166769
aF-9.601638940166769
aF-7.203743667368399
aF-7.203743667368399
aF-3.9632842708330234
aF-5.490765075993458
aF-6.1676517356816225
aF-9.601638940166769
aF-9.601638940166769
aF-6.557116502443346
aF-5.888066873462462
aF-5.490765075993458
aF-6.557116502443346
aF-7.203743667368399
aF-6.557116502443346
aF-9.601638940166769
aF-7.203743667368399
aF-5.888066873462462
aF-6.557116502443346
aF-4.5843591033518445
aF-9.601638940166769
aF-3.7995205647897063
aF-4.1592212296449755
aF-3.446780846150351
aF-9.601638940166769
aF-9.601638940166769
aF-5.6698133074424435
aF-9.601638940166769
aF-6.557116502443346
aF-7.203743667368399
aF-7.203743667368399
aF-9.601638940166769
aF-9.601638940166769
aF-7.203743667368399
aF-4.203476238649016
aF-6.557116502443346
aF-9.601638940166769
aF-9.601638940166769
aF-9.601638940166769
aF-9.601638940166769
aF-9.601638940166769
aF-9.601638940166769
aF-7.203743667368399
aF-4.1592212296449755
aF-9.601638940166769
aF-9.601638940166769
aF-9.601638940166769
aF-9.601638940166769
aF-9.601638940166769
aF-9.601638940166769
aF-7.203743667368399
aF-9.601638940166769
aF-6.557116502443346
aF-7.203743667368399
aF-7.203743667368399
aF-9.601638940166769
aF-9.601638940166769
aF-9.601638940166769
aF-6.557116502443346
aF-9.601638940166769
aF-9.601638940166769
aF-4.652879049788601
aF-5.888066873462462
aF-7.203743667368399
aF-9.601638940166769
aF-7.203743667368399
aF-4.892108738854435
aF-9.601638940166769
aF-9.601638940166769
aF-9.601638940166769
aF-5.6698133074424435
aF-9.601638940166769
aF-4.459975383664109
aF-6.1676517356816225
aF-9.601638940166769
aF-9.601638940166769
aF-9.601638940166769
aF-5.490765075993458
aF-9.601638940166769
aF-7.203743667368399
aF-9.601638940166769
aF-9.601638940166769
aF-9.601638940166769
aF-5.888066873462462
aF-9.601638940166769
aF-6.557116502443346
aF-7.203743667368399
aF-9.601638940166769
aF-9.601638940166769
aF-7.203743667368399
aF-6.557116502443346
aF-6.1676517356816225
aF-9.601638940166769
aF-9.601638940166769
aF-9.601638940166769
aF-9.601638940166769
aF-9.601638940166769
aF-7.203743667368399
aF-7.203743667368399
aF-7.203743667368399
aF-6.1676517356816225
aF-6.1676517356816225
aF-6.557116502443346
aF-6.557116502443346
aF-9.601638940166769
aF-9.601638940166769
aF-9.601638940166769
aF-4.805848394570028
aF-7.203743667368399
aF-9.601638940166769
aF-9.601638940166769
aF-9.601638940166769
aF-9.601638940166769
aF-9.601638940166769
aF-7.203743667368399
aF-9.601638940166769
aF-7.203743667368399
aF-9.601638940166769
aF-9.601638940166769
aF-6.557116502443346
aF-7.203743667368399
aF-7.203743667368399
aF-5.6698133074424435
aF-9.601638940166769
aF-5.090779433649919
aF-9.601638940166769
aF-9.601638940166769
aF-7.203743667368399
aF-7.203743667368399
aF-7.203743667368399
aF-4.805848394570028
aF-7.203743667368399
aF-4.076186001034985
aF-4.98651842332551
aF-5.888066873462462
aF-5.888066873462462
aF-5.888066873462462
aF-9.601638940166769
aF-5.090779433649919
aF-9.601638940166769
aF-9.601638940166769
aF-6.557116502443346
aF-9.601638940166769
aF-6.1676517356816225
aF-9.601638940166769
aF-6.557116502443346
aF-4.652879049788601
aF-7.203743667368399
aF-4.116842006676114
aF-2.8205813142305898
aF-7.203743667368399
aF-5.6698133074424435
aF-7.203743667368399
aF-9.601638940166769
aF-9.601638940166769
aF-9.601638940166769
aF-6.1676517356816225
aF-7.203743667368399
aF-4.805848394570028
aF-9.601638940166769
aF-9.601638940166769
aF-9.601638940166769
aF-6.1676517356816225
aF-9.601638940166769
aF-6.557116502443346
aF-6.557116502443346
aF-9.601638940166769
aF-7.203743667368399
aF-9.601638940166769
aF-9.601638940166769
aF-7.203743667368399
aF-7.203743667368399
aF-7.203743667368399
aF-9.601638940166769
aF-9.601638940166769
aF-6.1676517356816225
aF-7.203743667368399
aF-9.601638940166769
aF-4.349365512120139
aF-9.601638940166769
aF-9.601638940166769
aF-6.557116502443346
aF-9.601638940166769
aF-9.601638940166769
aF-6.557116502443346
aF-7.203743667368399
aF-4.116842006676114
aF-7.203743667368399
aF-6.1676517356816225
aF-6.557116502443346
aF-9.601638940166769
aF-9.601638940166769
aF-9.601638940166769
aF-4.298334032107693
aF-7.203743667368399
aF-7.203743667368399
aF-6.557116502443346
aF-5.490765075993458
aF-9.601638940166769
aF-5.6698133074424435
aF-9.601638940166769
aF-5.338959063125454
aF-9.601638940166769
aF-7.203743667368399
aF-4.892108738854435
aF-9.601638940166769
aF-7.203743667368399
aF-4.98651842332551
aF-7.203743667368399
aF-9.601638940166769
aF-9.601638940166769
aF-9.601638940166769
aF-9.601638940166769
aF-9.601638940166769
aF-9.601638940166769
aF-9.601638940166769
aF-9.601638940166769
aF-9.601638940166769
aF-5.888066873462462
aF-5.338959063125454
aF-6.557116502443346
aF-9.601638940166769
aF-9.601638940166769
aF-5.888066873462462
aF-5.338959063125454
aF-6.557116502443346
aF-9.601638940166769
aF-6.557116502443346
aF-6.1676517356816225
aF-9.601638940166769
aF-6.557116502443346
aF-5.888066873462462
aF-9.601638940166769
aF-7.203743667368399
aF-9.601638940166769
aF-9.601638940166769
aF-9.601638940166769
aF-9.601638940166769
aF-7.203743667368399
aF-6.1676517356816225
aF-5.888066873462462
aF-9.601638940166769
aF-7.203743667368399
aF-9.601638940166769
aF-9.601638940166769
aF-9.601638940166769
aF-7.203743667368399
aF-5.090779433649919
aF-7.203743667368399
aF-9.601638940166769
aF-7.203743667368399
aF-9.601638940166769
aF-7.203743667368399
aF-9.601638940166769
aF-7.203743667368399
aF-5.338959063125454
aF-9.601638940166769
aF-9.601638940166769
aF-9.601638940166769
aF-6.1676517356816225
aF-5.888066873462462
aF-9.601638940166769
aF-9.601638940166769
aF-5.090779433649919
aF-5.888066873462462
aF-9.601638940166769
aF-9.601638940166769
aF-9.601638940166769
aF-7.203743667368399
aF-9.601638940166769
aF-6.1676517356816225
aF-9.601638940166769
aF-6.1676517356816225
aF-9.601638940166769
aF-9.601638940166769
aF-7.203743667368399
aF-9.601638940166769
aF-9.601638940166769
aF-9.601638940166769
aF-3.9283156729952764
aF-5.490765075993458
aF-9.601638940166769
aF-5.888066873462462
aF-9.601638940166769
aF-5.888066873462462
aF-5.6698133074424435
aF-6.557116502443346
aF-9.601638940166769
aF-7.203743667368399
aF-5.888066873462462
aF-9.601638940166769
aF-7.203743667368399
aF-9.601638940166769
aF-9.601638940166769
aF-9.601638940166769
aF-7.203743667368399
aF-9.601638940166769
aF-5.2071897854943305
aF-9.601638940166769
aF-9.601638940166769
aF-9.601638940166769
aF-9.601638940166769
aF-9.601638940166769
aF-9.601638940166769
aF-6.557116502443346
aF-9.601638940166769
aF-4.520234575182306
aF-9.601638940166769
aF-9.601638940166769
aF-9.601638940166769
aF-6.1676517356816225
aF-6.557116502443346
aF-6.1676517356816225
aF-9.601638940166769
aF-9.601638940166769
aF-9.601638940166769
aF-6.557116502443346
aF-4.520234575182306
aF-9.601638940166769
aF-7.203743667368399
aF-5.6698133074424435
aF-9.601638940166769
aF-7.203743667368399
aF-9.601638940166769
aF-9.601638940166769
aF-6.1676517356816225
aF-5.490765075993458
aF-7.203743667368399
aF-9.601638940166769
aF-9.601638940166769
aF-9.601638940166769
aF-4.1592212296449755
aF-9.601638940166769
aF-4.726441616965618
aF-9.601638940166769
aF-6.1676517356816225
aF-9.601638940166769
aF-6.557116502443346
aF-9.601638940166769
aF-7.203743667368399
aF-5.490765075993458
aF-6.1676517356816225
aF-4.349365512120139
aF-9.601638940166769
aF-7.203743667368399
aF-9.601638940166769
aF-5.338959063125454
aF-6.1676517356816225
aF-9.601638940166769
aF-9.601638940166769
aF-7.203743667368399
aF-7.203743667368399
aF-9.601638940166769
aF-6.1676517356816225
aF-9.601638940166769
aF-5.6698133074424435
aF-5.6698133074424435
aF-9.601638940166769
aF-7.203743667368399
aF-9.601638940166769
aF-9.601638940166769
aF-7.203743667368399
aF-9.601638940166769
aF-4.892108738854435
aF-9.601638940166769
aF-9.601638940166769
aF-9.601638940166769
aF-7.203743667368399
aF-9.601638940166769
aF-9.601638940166769
aF-5.338959063125454
aF-4.403141908900944
aF-5.490765075993458
aF-9.601638940166769
aF-9.601638940166769
aF-5.888066873462462
aF-4.805848394570028
aF-9.601638940166769
aF-9.601638940166769
aF-7.203743667368399
aF-6.1676517356816225
aF-9.601638940166769
aF-9.601638940166769
aF-5.6698133074424435
aF-9.601638940166769
aF-4.726441616965618
aF-6.1676517356816225
aF-9.601638940166769
aF-9.601638940166769
aF-9.601638940166769
aF-6.557116502443346
aF-9.601638940166769
aF-9.601638940166769
aF-9.601638940166769
aF-9.601638940166769
aF-9.601638940166769
aF-9.601638940166769
aF-3.365269349963065
aF-7.203743667368399
aF-7.203743667368399
aF-6.1676517356816225
aF-7.203743667368399
aF-9.601638940166769
aF-9.601638940166769
aF-7.203743667368399
aF-9.601638940166769
aF-5.338959063125454
aF-7.203743667368399
aF-6.557116502443346
aF-4.805848394570028
aF-9.601638940166769
aF-9.601638940166769
aF-5.6698133074424435
aF-7.203743667368399
aF-9.601638940166769
aF-9.601638940166769
aF-7.203743667368399
aF-9.601638940166769
aF-9.601638940166769
aF-9.601638940166769
aF-6.557116502443346
aF-4.349365512120139
aF-9.601638940166769
aF-9.601638940166769
aF-7.203743667368399
aF-7.203743667368399
aF-6.557116502443346
aF-6.557116502443346
aF-9.601638940166769
aF-9.601638940166769
aF-9.601638940166769
aF-9.601638940166769
aF-3.9283156729952764
aF-9.601638940166769
aF-9.601638940166769
aF-7.203743667368399
aF-5.338959063125454
aF-5.888066873462462
aF-4.116842006676114
aF-6.557116502443346
aF-5.2071897854943305
aF-5.6698133074424435
aF-9.601638940166769
aF-4.459975383664109
aF-4.726441616965618
aF-9.601638940166769
aF-9.601638940166769
aF-7.203743667368399
aF-9.601638940166769
aF-6.557116502443346
aF-9.601638940166769
aF-4.037118532844076
aF-9.601638940166769
aF-7.203743667368399
aF-6.1676517356816225
aF-4.98651842332551
aF-5.090779433649919
aF-4.203476238649016
aF-6.557116502443346
aF-6.557116502443346
aF-4.805848394570028
aF-7.203743667368399
aF-7.203743667368399
aF-7.203743667368399
aF-3.9283156729952764
aF-6.1676517356816225
aF-3.8301978170367534
aF-1.2609442922416976
aF-9.601638940166769
aF-9.601638940166769
aF-9.601638940166769
aF-7.203743667368399
aF-9.601638940166769
aF-9.601638940166769
aF-6.557116502443346
aF-9.601638940166769
aF-9.601638940166769
aF-7.203743667368399
aF-4.892108738854435
aF-5.2071897854943305
aF-9.601638940166769
aF-9.601638940166769
aF-9.601638940166769
aF-6.557116502443346
aF-9.601638940166769
aF-5.888066873462462
aF-9.601638940166769
aF-9.601638940166769
aF-9.601638940166769
aF-9.601638940166769
aF-9.601638940166769
aF-6.557116502443346
aF-5.6698133074424435
aF-5.6698133074424435
aF-7.203743667368399
aF-6.557116502443346
aF-5.888066873462462
aF-5.490765075993458
aF-9.601638940166769
aF-9.601638940166769
aF-7.203743667368399
aF-7.203743667368399
aF-4.892108738854435
aF-6.1676517356816225
aF-7.203743667368399
aF-9.601638940166769
aF-3.385032839081904
aF-4.403141908900944
aF-9.601638940166769
aF-3.7127609818338883
aF-7.203743667368399
aF-7.203743667368399
aF-9.601638940166769
aF-6.557116502443346
aF-7.203743667368399
aF-3.4901716006640906
aF-9.601638940166769
aF-9.601638940166769
aF-7.203743667368399
aF-3.7697564628832523
aF-5.490765075993458
aF-3.8301978170367534
aF-4.459975383664109
aF-5.090779433649919
aF-4.298334032107693
aF-4.805848394570028
aF-3.446780846150351
aF-9.601638940166769
aF-9.601638940166769
aF-7.203743667368399
aF-9.601638940166769
aF-9.601638940166769
aF-9.601638940166769
aF-6.1676517356816225
aF-6.557116502443346
aF-6.557116502443346
aF-3.6329313801814034
aF-2.879009145311321
aF-2.765379662889702
aF-3.3268769189248304
aF-7.203743667368399
aF-9.601638940166769
aF-4.116842006676114
aF-5.2071897854943305
aF-4.98651842332551
aF-1.598275881536821
aF-9.601638940166769
aF-3.6329313801814034
aF-2.2679625445090856
aF-9.601638940166769
aF-5.090779433649919
aF-4.892108738854435
aF-7.203743667368399
aF-9.601638940166769
aF-7.203743667368399
aF-9.601638940166769
aF-4.726441616965618
aF-6.557116502443346
aF-9.601638940166769
aF-3.3458888984134023
aF-9.601638940166769
aF-9.601638940166769
aF-3.7697564628832523
aF-2.536025576569052
aF-9.601638940166769
aF-9.601638940166769
aF-6.557116502443346
aF-9.601638940166769
aF-9.601638940166769
aF-4.652879049788601
aF-3.7408527167009034
aF-5.2071897854943305
aF-5.090779433649919
aF-5.490765075993458
aF-7.203743667368399
aF-9.601638940166769
aF-7.203743667368399
aF-9.601638940166769
aF-6.1676517356816225
aF-5.888066873462462
aF-7.203743667368399
aF-6.557116502443346
aF-5.090779433649919
aF-9.601638940166769
aF-7.203743667368399
aF-9.601638940166769
aF-5.6698133074424435
aF-9.601638940166769
aF-9.601638940166769
aF-9.601638940166769
aF-9.601638940166769
aF-7.203743667368399
aF-9.601638940166769
aF-9.601638940166769
aF-9.601638940166769
aF-9.601638940166769
aF-2.606788954333698
aF-9.601638940166769
aF-5.6698133074424435
aF-5.888066873462462
aF-7.203743667368399
aF-9.601638940166769
aF-6.1676517356816225
aF-7.203743667368399
aF-6.557116502443346
aF-9.601638940166769
aF-7.203743667368399
aF-7.203743667368399
aF-9.601638940166769
aF-7.203743667368399
aF-7.203743667368399
aF-6.1676517356816225
aF-6.557116502443346
aF-7.203743667368399
a.