(lp0
(lp1
S'like'
p2
aS'good'
p3
aS'well'
p4
aS'best'
p5
aS'great'
p6
aS'work'
p7
aS'plot'
p8
aS'love'
p9
aS'enough'
p10
aS'right'
p11
aa(lp12
g2
ag3
aS'bad'
p13
ag8
ag4
aS'better'
p14
ag5
ag7
ag10
ag9
aa.