(lp0
(lp1
S'like'
p2
aS'good'
p3
aS'well'
p4
aS'best'
p5
aS'great'
p6
aS'plot'
p7
aS'work'
p8
aS'love'
p9
aS'right'
p10
aS'better'
p11
aa(lp12
g2
ag3
ag7
aS'bad'
p13
ag4
ag11
ag5
ag8
aS'enough'
p14
ag9
aa.